///////////////////////////////////////////////////////////////////////////////
//                                                                            /
// IAR C/C++ Compiler V8.10.3.10338/W32 for 8051        26/Mar/2026  12:36:33 /
// Copyright 2004-2011 IAR Systems AB.                                        /
//                                                                            /
//    Core               =  plain                                             /
//    Code model         =  banked                                            /
//    Data model         =  large                                             /
//    Calling convention =  xdata reentrant                                   /
//    Constant location  =  data_rom                                          /
//    Dptr setup         =  1,16                                              /
//    Source file        =  G:\Coding\7 zigbee STM32 -                        /
//                          ¸±±ľ\Projects\zstack\Utilities\SerialApp\Source\S /
//                          erialApp.c                                        /
//    Command line       =  -f "G:\Coding\7 zigbee STM32 -                    /
//                          ¸±±ľ\Projects\zstack\Utilities\SerialApp\CC2530DB /
//                          \..\..\..\Tools\CC2530DB\f8wCoord.cfg"            /
//                          (-DCPU32MHZ -DROOT=__near_func                    /
//                          -DMAC_CFG_APP_PENDING_QUEUE=TRUE                  /
//                          -DZDO_COORDINATOR -DRTR_NWK -DBLINK_LEDS) -f      /
//                          "G:\Coding\7 zigbee STM32 -                       /
//                          ¸±±ľ\Projects\zstack\Utilities\SerialApp\CC2530DB /
//                          \..\..\..\Tools\CC2530DB\f8wConfig.cfg"           /
//                          (-DSECURE=0 -DZG_SECURE_DYNAMIC=0 -DREFLECTOR     /
//                          -DDEFAULT_CHANLIST=0x00000800                     /
//                          -DZDAPP_CONFIG_PAN_ID=0x1223                      /
//                          -DNWK_START_DELAY=100 -DEXTENDED_JOINING_RANDOM_M /
//                          ASK=0x007F -DBEACON_REQUEST_DELAY=100             /
//                          -DBEACON_REQ_DELAY_MASK=0x00FF                    /
//                          -DROUTE_EXPIRY_TIME=30 -DAPSC_ACK_WAIT_DURATION_P /
//                          OLLED=3000 -DNWK_INDIRECT_MSG_TIMEOUT=7           /
//                          -DMAX_RREQ_ENTRIES=8 -DAPSC_MAX_FRAME_RETRIES=3   /
//                          -DNWK_MAX_DATA_RETRIES=2                          /
//                          -DMAX_POLL_FAILURE_RETRIES=2 -DMAX_BCAST=9        /
//                          -DAPS_MAX_GROUPS=16 -DMAX_RTG_ENTRIES=40          /
//                          -DNWK_MAX_BINDING_ENTRIES=4                       /
//                          -DMAX_BINDING_CLUSTER_IDS=4                       /
//                          "-DDEFAULT_KEY={0x01, 0x03, 0x05, 0x07, 0x09,     /
//                          0x0B, 0x0D, 0x0F, 0x00, 0x02, 0x04, 0x06, 0x08,   /
//                          0x0A, 0x0C, 0x0D}" -DMAC_MAX_FRAME_SIZE=116       /
//                          "-DCONST=const __code" -DGENERIC=__generic        /
//                          -DRFD_RCVC_ALWAYS_ON=FALSE -DPOLL_RATE=1000       /
//                          -DQUEUED_POLL_RATE=100 -DRESPONSE_POLL_RATE=100)  /
//                          -DREJOIN_POLL_RATE=440 "G:\Coding\7 zigbee STM32  /
//                          - ¸±±ľ\Projects\zstack\Utilities\SerialApp\Source /
//                          \SerialApp.c" -D ZIGBEEPRO -D HAL_UART=TRUE -D    /
//                          SERIAL_APP_PORT=0 -D LCD_SUPPORTED -D             /
//                          ZDAPP_CONFIG_PAN_ID=0x4242 -D                     /
//                          DEFAULT_CHANLIST=0x00008000 -D NV_INIT=FALSE -D   /
//                          NV_RESTORE=FALSE -lC "G:\Coding\7 zigbee STM32 -  /
//                          ¸±±ľ\Projects\zstack\Utilities\SerialApp\CC2530DB /
//                          \CoordinatorEB-Pro\List\" -lA "G:\Coding\7        /
//                          zigbee STM32 - ¸±±ľ\Projects\zstack\Utilities\Ser /
//                          ialApp\CC2530DB\CoordinatorEB-Pro\List\"          /
//                          --diag_suppress Pe001,Pa010,Pe069 -o              /
//                          "G:\Coding\7 zigbee STM32 -                       /
//                          ¸±±ľ\Projects\zstack\Utilities\SerialApp\CC2530DB /
//                          \CoordinatorEB-Pro\Obj\" -e --debug --core=plain  /
//                          --dptr=16,1 --data_model=large                    /
//                          --code_model=banked --calling_convention=xdata_re /
//                          entrant --place_constants=data_rom                /
//                          --nr_virtual_regs 8 -I "G:\Coding\7 zigbee STM32  /
//                          - ¸±±ľ\Projects\zstack\Utilities\SerialApp\CC2530 /
//                          DB\" -I "G:\Coding\7 zigbee STM32 -               /
//                          ¸±±ľ\Projects\zstack\Utilities\SerialApp\CC2530DB /
//                          \..\SOURCE\" -I "G:\Coding\7 zigbee STM32 -       /
//                          ¸±±ľ\Projects\zstack\Utilities\SerialApp\CC2530DB /
//                          \..\..\..\ZMAIN\TI2530DB\" -I "G:\Coding\7        /
//                          zigbee STM32 - ¸±±ľ\Projects\zstack\Utilities\Ser /
//                          ialApp\CC2530DB\..\..\..\..\..\COMPONENTS\MT\"    /
//                          -I "G:\Coding\7 zigbee STM32 -                    /
//                          ¸±±ľ\Projects\zstack\Utilities\SerialApp\CC2530DB /
//                          \..\..\..\..\..\COMPONENTS\HAL\INCLUDE\" -I       /
//                          "G:\Coding\7 zigbee STM32 -                       /
//                          ¸±±ľ\Projects\zstack\Utilities\SerialApp\CC2530DB /
//                          \..\..\..\..\..\COMPONENTS\HAL\TARGET\CC2530EB\"  /
//                          -I "G:\Coding\7 zigbee STM32 -                    /
//                          ¸±±ľ\Projects\zstack\Utilities\SerialApp\CC2530DB /
//                          \..\..\..\..\..\COMPONENTS\OSAL\MCU\CCSOC\" -I    /
//                          "G:\Coding\7 zigbee STM32 -                       /
//                          ¸±±ľ\Projects\zstack\Utilities\SerialApp\CC2530DB /
//                          \..\..\..\..\..\COMPONENTS\OSAL\INCLUDE\" -I      /
//                          "G:\Coding\7 zigbee STM32 -                       /
//                          ¸±±ľ\Projects\zstack\Utilities\SerialApp\CC2530DB /
//                          \..\..\..\..\..\COMPONENTS\STACK\AF\" -I          /
//                          "G:\Coding\7 zigbee STM32 -                       /
//                          ¸±±ľ\Projects\zstack\Utilities\SerialApp\CC2530DB /
//                          \..\..\..\..\..\COMPONENTS\STACK\NWK\" -I         /
//                          "G:\Coding\7 zigbee STM32 -                       /
//                          ¸±±ľ\Projects\zstack\Utilities\SerialApp\CC2530DB /
//                          \..\..\..\..\..\COMPONENTS\STACK\SEC\" -I         /
//                          "G:\Coding\7 zigbee STM32 -                       /
//                          ¸±±ľ\Projects\zstack\Utilities\SerialApp\CC2530DB /
//                          \..\..\..\..\..\COMPONENTS\STACK\SAPI\" -I        /
//                          "G:\Coding\7 zigbee STM32 -                       /
//                          ¸±±ľ\Projects\zstack\Utilities\SerialApp\CC2530DB /
//                          \..\..\..\..\..\COMPONENTS\STACK\SYS\" -I         /
//                          "G:\Coding\7 zigbee STM32 -                       /
//                          ¸±±ľ\Projects\zstack\Utilities\SerialApp\CC2530DB /
//                          \..\..\..\..\..\COMPONENTS\STACK\ZDO\" -I         /
//                          "G:\Coding\7 zigbee STM32 -                       /
//                          ¸±±ľ\Projects\zstack\Utilities\SerialApp\CC2530DB /
//                          \..\..\..\..\..\COMPONENTS\ZMAC\F8W\" -I          /
//                          "G:\Coding\7 zigbee STM32 -                       /
//                          ¸±±ľ\Projects\zstack\Utilities\SerialApp\CC2530DB /
//                          \..\..\..\..\..\COMPONENTS\ZMAC\" -I              /
//                          "G:\Coding\7 zigbee STM32 -                       /
//                          ¸±±ľ\Projects\zstack\Utilities\SerialApp\CC2530DB /
//                          \..\..\..\..\..\COMPONENTS\SERVICES\SADDR\" -I    /
//                          "G:\Coding\7 zigbee STM32 -                       /
//                          ¸±±ľ\Projects\zstack\Utilities\SerialApp\CC2530DB /
//                          \..\..\..\..\..\COMPONENTS\SERVICES\SDATA\" -I    /
//                          "G:\Coding\7 zigbee STM32 -                       /
//                          ¸±±ľ\Projects\zstack\Utilities\SerialApp\CC2530DB /
//                          \..\..\..\..\..\COMPONENTS\MAC\INCLUDE\" -I       /
//                          "G:\Coding\7 zigbee STM32 -                       /
//                          ¸±±ľ\Projects\zstack\Utilities\SerialApp\CC2530DB /
//                          \..\..\..\..\..\COMPONENTS\MAC\HIGH_LEVEL\" -I    /
//                          "G:\Coding\7 zigbee STM32 -                       /
//                          ¸±±ľ\Projects\zstack\Utilities\SerialApp\CC2530DB /
//                          \..\..\..\..\..\COMPONENTS\MAC\LOW_LEVEL\srf04\"  /
//                          -I "G:\Coding\7 zigbee STM32 -                    /
//                          ¸±±ľ\Projects\zstack\Utilities\SerialApp\CC2530DB /
//                          \..\..\..\..\..\COMPONENTS\MAC\LOW_LEVEL\srf04\SI /
//                          NGLE_CHIP\" -Ohz --require_prototypes             /
//    List file          =  G:\Coding\7 zigbee STM32 -                        /
//                          ¸±±ľ\Projects\zstack\Utilities\SerialApp\CC2530DB /
//                          \CoordinatorEB-Pro\List\SerialApp.s51             /
//                                                                            /
//                                                                            /
///////////////////////////////////////////////////////////////////////////////

        NAME SerialApp

        RTMODEL "__SystemLibrary", "CLib"
        RTMODEL "__calling_convention", "xdata_reentrant"
        RTMODEL "__code_model", "banked"
        RTMODEL "__core", "plain"
        RTMODEL "__data_model", "large"
        RTMODEL "__dptr_size", "16"
        RTMODEL "__extended_stack", "disabled"
        RTMODEL "__location_for_constants", "data"
        RTMODEL "__number_of_dptrs", "1"
        RTMODEL "__rt_version", "1"

        RSEG DOVERLAY:DATA:NOROOT(0)
        RSEG IOVERLAY:IDATA:NOROOT(0)
        RSEG ISTACK:IDATA:NOROOT(0)
        RSEG PSTACK:XDATA:NOROOT(0)
        RSEG XSTACK:XDATA:NOROOT(0)

        EXTERN ?ADD_XSTACK_DISP0_16
        EXTERN ?ALLOC_XSTACK8
        EXTERN ?BANKED_ENTER_XDATA
        EXTERN ?BANKED_LEAVE_XDATA
        EXTERN ?BDISPATCH
        EXTERN ?BRET
        EXTERN ?DEALLOC_XSTACK8
        EXTERN ?PUSH_XSTACK_I_THREE
        EXTERN ?V0
        EXTERN ?XSP
        EXTERN ?XSTACK_DISP0_8
        EXTERN __INIT_XDATA_I
        EXTERN __INIT_XDATA_Z

        FUNCTION ??SendUplinkFrame?relay,0203H
        PUBLIC ??SerialApp_Init?relay
        FUNCTION ??SerialApp_Init?relay,0203H
        PUBLIC ??SerialApp_ProcessEvent?relay
        FUNCTION ??SerialApp_ProcessEvent?relay,0203H
        FUNCTION ??SerialApp_UART_CB_BRIDGE?relay,0203H
        FUNCTION ??crc16_modbus?relay,0203H
        PUBWEAK P0DIR
        PUBWEAK P0SEL
        PUBWEAK P2DIR
        PUBWEAK PERCFG
        PUBLIC SampleApp_NwkState
        FUNCTION SendUplinkFrame,021203H
        ARGFRAME XSTACK, 18, STACK
        ARGFRAME IOVERLAY, 0, STATIC
        ARGFRAME DOVERLAY, 0, STATIC
        LOCFRAME ISTACK, 1, STACK
        LOCFRAME XSTACK, 270, STACK
        PUBLIC SerialApp_ClusterList
        PUBLIC SerialApp_Init
        FUNCTION SerialApp_Init,021203H
        ARGFRAME XSTACK, 0, STACK
        LOCFRAME XSTACK, 38, STACK
        PUBLIC SerialApp_ProcessEvent
        FUNCTION SerialApp_ProcessEvent,021203H
        ARGFRAME XSTACK, 0, STACK
        LOCFRAME ISTACK, 1, STACK
        LOCFRAME XSTACK, 18, STACK
        PUBLIC SerialApp_SimpleDesc
        PUBLIC SerialApp_TaskID
        FUNCTION SerialApp_UART_CB_BRIDGE,0603H
        ARGFRAME XSTACK, 0, STACK
        PUBLIC SerialApp_epDesc
        FUNCTION crc16_modbus,0203H
        ARGFRAME XSTACK, 267, STACK
        ARGFRAME IOVERLAY, 0, STATIC
        ARGFRAME DOVERLAY, 0, STATIC
        LOCFRAME ISTACK, 1, STACK
        LOCFRAME XSTACK, 10, STACK
        
        CFI Names cfiNames0
        CFI StackFrame CFA_SP SP IDATA
        CFI StackFrame CFA_PSP16 PSP16 XDATA
        CFI StackFrame CFA_XSP16 XSP16 XDATA
        CFI StaticOverlayFrame CFA_IOVERLAY IOVERLAY
        CFI StaticOverlayFrame CFA_DOVERLAY DOVERLAY
        CFI Resource `PSW.CY`:1, `B.BR0`:1, `B.BR1`:1, `B.BR2`:1, `B.BR3`:1
        CFI Resource `B.BR4`:1, `B.BR5`:1, `B.BR6`:1, `B.BR7`:1, `VB.BR8`:1
        CFI Resource `VB.BR9`:1, `VB.BR10`:1, `VB.BR11`:1, `VB.BR12`:1
        CFI Resource `VB.BR13`:1, `VB.BR14`:1, `VB.BR15`:1, VB:8, B:8, A:8
        CFI Resource PSW:8, DPL0:8, DPH0:8, R0:8, R1:8, R2:8, R3:8, R4:8, R5:8
        CFI Resource R6:8, R7:8, V0:8, V1:8, V2:8, V3:8, V4:8, V5:8, V6:8, V7:8
        CFI Resource SP:8, PSPH:8, PSPL:8, PSP16:16, XSPH:8, XSPL:8, XSP16:16
        CFI VirtualResource ?RET:24
        CFI Resource ?BRET_EXT:8
        CFI VirtualResource ?RET_HIGH:8, ?RET_LOW:8
        CFI ResourceParts PSP16 PSPH, PSPL
        CFI ResourceParts XSP16 XSPH, XSPL
        CFI ResourceParts ?RET ?BRET_EXT, ?RET_HIGH, ?RET_LOW
        CFI EndNames cfiNames0
        
        CFI Common cfiCommon0 Using cfiNames0
        CFI CodeAlign 1
        CFI DataAlign -1
        CFI ReturnAddress ?RET CODE
        CFI CFA_DOVERLAY Used
        CFI CFA_IOVERLAY Used
        CFI CFA_SP SP+-3
        CFI CFA_PSP16 PSP16+0
        CFI CFA_XSP16 XSP16+0
        CFI `PSW.CY` SameValue
        CFI `B.BR0` SameValue
        CFI `B.BR1` SameValue
        CFI `B.BR2` SameValue
        CFI `B.BR3` SameValue
        CFI `B.BR4` SameValue
        CFI `B.BR5` SameValue
        CFI `B.BR6` SameValue
        CFI `B.BR7` SameValue
        CFI `VB.BR8` SameValue
        CFI `VB.BR9` SameValue
        CFI `VB.BR10` SameValue
        CFI `VB.BR11` SameValue
        CFI `VB.BR12` SameValue
        CFI `VB.BR13` SameValue
        CFI `VB.BR14` SameValue
        CFI `VB.BR15` SameValue
        CFI VB SameValue
        CFI B Undefined
        CFI A Undefined
        CFI PSW SameValue
        CFI DPL0 SameValue
        CFI DPH0 SameValue
        CFI R0 Undefined
        CFI R1 Undefined
        CFI R2 Undefined
        CFI R3 Undefined
        CFI R4 Undefined
        CFI R5 Undefined
        CFI R6 SameValue
        CFI R7 SameValue
        CFI V0 SameValue
        CFI V1 SameValue
        CFI V2 SameValue
        CFI V3 SameValue
        CFI V4 SameValue
        CFI V5 SameValue
        CFI V6 SameValue
        CFI V7 SameValue
        CFI PSPH Undefined
        CFI PSPL Undefined
        CFI XSPH Undefined
        CFI XSPL Undefined
        CFI ?RET Concat
        CFI ?BRET_EXT Frame(CFA_SP, 3)
        CFI ?RET_HIGH Frame(CFA_SP, 2)
        CFI ?RET_LOW Frame(CFA_SP, 1)
        CFI EndCommon cfiCommon0
        
        
        CFI Common cfiCommon1 Using cfiNames0
        CFI CodeAlign 1
        CFI DataAlign -1
        CFI ReturnAddress ?RET CODE
        CFI CFA_DOVERLAY Used
        CFI CFA_IOVERLAY Used
        CFI CFA_SP SP+-2
        CFI CFA_PSP16 PSP16+0
        CFI CFA_XSP16 XSP16+0
        CFI `PSW.CY` SameValue
        CFI `B.BR0` SameValue
        CFI `B.BR1` SameValue
        CFI `B.BR2` SameValue
        CFI `B.BR3` SameValue
        CFI `B.BR4` SameValue
        CFI `B.BR5` SameValue
        CFI `B.BR6` SameValue
        CFI `B.BR7` SameValue
        CFI `VB.BR8` SameValue
        CFI `VB.BR9` SameValue
        CFI `VB.BR10` SameValue
        CFI `VB.BR11` SameValue
        CFI `VB.BR12` SameValue
        CFI `VB.BR13` SameValue
        CFI `VB.BR14` SameValue
        CFI `VB.BR15` SameValue
        CFI VB SameValue
        CFI B SameValue
        CFI A SameValue
        CFI PSW SameValue
        CFI DPL0 SameValue
        CFI DPH0 SameValue
        CFI R0 SameValue
        CFI R1 SameValue
        CFI R2 SameValue
        CFI R3 SameValue
        CFI R4 SameValue
        CFI R5 SameValue
        CFI R6 SameValue
        CFI R7 SameValue
        CFI V0 SameValue
        CFI V1 SameValue
        CFI V2 SameValue
        CFI V3 SameValue
        CFI V4 SameValue
        CFI V5 SameValue
        CFI V6 SameValue
        CFI V7 SameValue
        CFI PSPH Undefined
        CFI PSPL Undefined
        CFI XSPH Undefined
        CFI XSPL Undefined
        CFI ?RET Concat
        CFI ?BRET_EXT SameValue
        CFI ?RET_HIGH Frame(CFA_SP, 2)
        CFI ?RET_LOW Frame(CFA_SP, 1)
        CFI EndCommon cfiCommon1
        
afRegister          SYMBOL "afRegister"
HalUARTOpen         SYMBOL "HalUARTOpen"
osal_start_timerEx  SYMBOL "osal_start_timerEx"
Sensor_Init         SYMBOL "Sensor_Init"
HalLedSet           SYMBOL "HalLedSet"
osal_msg_deallocate SYMBOL "osal_msg_deallocate"
osal_msg_receive    SYMBOL "osal_msg_receive"
HalUARTWrite        SYMBOL "HalUARTWrite"
osal_memcpy         SYMBOL "osal_memcpy"
??HalLedSet?relay   SYMBOL "?relay", HalLedSet
??HalUARTOpen?relay SYMBOL "?relay", HalUARTOpen
??HalUARTWrite?relay SYMBOL "?relay", HalUARTWrite
??Sensor_Init?relay SYMBOL "?relay", Sensor_Init
??afRegister?relay  SYMBOL "?relay", afRegister
??osal_memcpy?relay SYMBOL "?relay", osal_memcpy
??osal_msg_deallocate?relay SYMBOL "?relay", osal_msg_deallocate
??osal_msg_receive?relay SYMBOL "?relay", osal_msg_receive
??osal_start_timerEx?relay SYMBOL "?relay", osal_start_timerEx
SerialApp_Init      SYMBOL "SerialApp_Init"
??SerialApp_Init?relay SYMBOL "?relay", SerialApp_Init
SerialApp_ProcessEvent SYMBOL "SerialApp_ProcessEvent"
??SerialApp_ProcessEvent?relay SYMBOL "?relay", SerialApp_ProcessEvent

        EXTERN afRegister
        FUNCTION afRegister,0202H
        ARGFRAME ISTACK, 0, STACK
        ARGFRAME PSTACK, 0, STACK
        ARGFRAME XSTACK, 38, STACK
        ARGFRAME IOVERLAY, 0, STATIC
        ARGFRAME DOVERLAY, 0, STATIC
        EXTERN HalUARTOpen
        FUNCTION HalUARTOpen,0202H
        ARGFRAME ISTACK, 0, STACK
        ARGFRAME PSTACK, 0, STACK
        ARGFRAME XSTACK, 38, STACK
        ARGFRAME IOVERLAY, 0, STATIC
        ARGFRAME DOVERLAY, 0, STATIC
        EXTERN osal_start_timerEx
        FUNCTION osal_start_timerEx,0202H
        ARGFRAME ISTACK, 0, STACK
        ARGFRAME PSTACK, 0, STACK
        ARGFRAME XSTACK, 38, STACK
        ARGFRAME IOVERLAY, 0, STATIC
        ARGFRAME DOVERLAY, 0, STATIC
        EXTERN Sensor_Init
        FUNCTION Sensor_Init,0202H
        ARGFRAME ISTACK, 0, STACK
        ARGFRAME PSTACK, 0, STACK
        ARGFRAME XSTACK, 38, STACK
        ARGFRAME IOVERLAY, 0, STATIC
        ARGFRAME DOVERLAY, 0, STATIC
        EXTERN HalLedSet
        FUNCTION HalLedSet,0202H
        ARGFRAME ISTACK, 0, STACK
        ARGFRAME PSTACK, 0, STACK
        ARGFRAME XSTACK, 18, STACK
        ARGFRAME IOVERLAY, 0, STATIC
        ARGFRAME DOVERLAY, 0, STATIC
        EXTERN osal_msg_deallocate
        FUNCTION osal_msg_deallocate,0202H
        ARGFRAME ISTACK, 0, STACK
        ARGFRAME PSTACK, 0, STACK
        ARGFRAME XSTACK, 18, STACK
        ARGFRAME IOVERLAY, 0, STATIC
        ARGFRAME DOVERLAY, 0, STATIC
        EXTERN osal_msg_receive
        FUNCTION osal_msg_receive,0202H
        ARGFRAME ISTACK, 0, STACK
        ARGFRAME PSTACK, 0, STACK
        ARGFRAME XSTACK, 18, STACK
        ARGFRAME IOVERLAY, 0, STATIC
        ARGFRAME DOVERLAY, 0, STATIC
        EXTERN HalUARTWrite
        FUNCTION HalUARTWrite,0202H
        ARGFRAME ISTACK, 0, STACK
        ARGFRAME PSTACK, 0, STACK
        ARGFRAME XSTACK, 267, STACK
        ARGFRAME IOVERLAY, 0, STATIC
        ARGFRAME DOVERLAY, 0, STATIC
        EXTERN osal_memcpy
        FUNCTION osal_memcpy,0202H
        ARGFRAME ISTACK, 0, STACK
        ARGFRAME PSTACK, 0, STACK
        ARGFRAME XSTACK, 270, STACK
        ARGFRAME IOVERLAY, 0, STATIC
        ARGFRAME DOVERLAY, 0, STATIC
        EXTERN ??HalLedSet?relay
        FUNCTION ??HalLedSet?relay,00H
        EXTERN ??HalUARTOpen?relay
        FUNCTION ??HalUARTOpen?relay,00H
        EXTERN ??HalUARTWrite?relay
        FUNCTION ??HalUARTWrite?relay,00H
        EXTERN ??Sensor_Init?relay
        FUNCTION ??Sensor_Init?relay,00H
        EXTERN ??afRegister?relay
        FUNCTION ??afRegister?relay,00H
        EXTERN ??osal_memcpy?relay
        FUNCTION ??osal_memcpy?relay,00H
        EXTERN ??osal_msg_deallocate?relay
        FUNCTION ??osal_msg_deallocate?relay,00H
        EXTERN ??osal_msg_receive?relay
        FUNCTION ??osal_msg_receive?relay,00H
        EXTERN ??osal_start_timerEx?relay
        FUNCTION ??osal_start_timerEx?relay,00H

// G:\Coding\7 zigbee STM32 - ¸±±ľ\Projects\zstack\Utilities\SerialApp\Source\SerialApp.c
//    1 /*********************************************************************
//    2  * INCLUDES
//    3  */
//    4 #include <stdio.h>    // ÓĂÓÚ sprintf
//    5 #include <string.h>   // ÓĂÓÚ strlen
//    6 #include <ioCC2530.h> 

        ASEGN SFR_AN:DATA:NOROOT,0f1H
// unsigned char volatile __sfr PERCFG
PERCFG:
        DATA8
        DS 1

        ASEGN SFR_AN:DATA:NOROOT,0f3H
// unsigned char volatile __sfr P0SEL
P0SEL:
        DATA8
        DS 1

        ASEGN SFR_AN:DATA:NOROOT,0fdH
// unsigned char volatile __sfr P0DIR
P0DIR:
        DATA8
        DS 1

        ASEGN SFR_AN:DATA:NOROOT,0ffH
// unsigned char volatile __sfr P2DIR
P2DIR:
        DATA8
        DS 1
//    7 
//    8 #include "AF.h"
//    9 #include "OnBoard.h"
//   10 #include "OSAL.h"
//   11 #include "OSAL_Memory.h" // ÓĂÓÚ osal_mem_alloc
//   12 #include "OSAL_Tasks.h"
//   13 #include "SerialApp.h"
//   14 #include "ZDApp.h"
//   15 #include "ZDObject.h"
//   16 #include "ZDProfile.h"
//   17 
//   18 #include "hal_drivers.h"
//   19 #include "hal_led.h"
//   20 #include "hal_uart.h"   // (V4.0) ËůÓĐÉč±¸¶ĽĐčŇŞ
//   21 
//   22 // --- ´«¸ĐĆ÷ąÜŔí˛ăÍ·ÎÄĽţ ---
//   23 #include "sensor.h"
//   24 
//   25 /*********************************************************************
//   26  * MACROS
//   27  */
//   28 
//   29 /*********************************************************************
//   30  * CONSTANTS
//   31  */
//   32 
//   33 #if !defined( SERIAL_APP_PORT )
//   34 #define SERIAL_APP_PORT  0  // (V4.7) ÎŇĂÇ˝«Ö»ĘąÓĂ UART 0
//   35 #endif
//   36 
//   37 // #define HAL_UART_PORT_BRIDGE   HAL_UART_PORT_1
//   38 
//   39 // V3.1 ąć·¶˛¨ĚŘÂĘ (V4.9 ÍłŇ»ĘąÓĂ´Ë˛¨ĚŘÂĘ)
//   40 #define BRIDGE_BAUD            HAL_UART_BR_115200 
//   41 
//   42 // (V4.7) ŇĆłýľÉµÄ 9600 ˛¨ĚŘÂĘ¶¨Ňĺ
//   43 // #if !defined( SERIAL_APP_BAUD )
//   44 // #define SERIAL_APP_BAUD  HAL_UART_BR_9600 
//   45 // #endif
//   46 
//   47 // --- V3.1 ¸üĐÂ: ĽŻČşÁĐ±í ---

        RSEG XDATA_ROM_C:CONST:REORDER:NOROOT(0)
        DATA8
//   48 const cId_t SerialApp_ClusterList[SERIALAPP_MAX_CLUSTERS] =
SerialApp_ClusterList:
        DATA16
        DW 1
        DW 2
        DW 3
//   49 {
//   50   SENSOR_DATA_CLUSTER,
//   51   CONTROL_CMD_CLUSTER,
//   52   SERIALAPP_OTA_CLUSTER
//   53 };
//   54 
//   55 // --- V3.1 ¸üĐÂ: ĽňµĄĂčĘö·ű (ĽŻČşĘýÁżŇŃÔÚ .h ÖĐ¸ÄÎŞ 3) ---

        RSEG XDATA_ROM_C:CONST:REORDER:NOROOT(0)
        DATA8
//   56 const SimpleDescriptionFormat_t SerialApp_SimpleDesc =
SerialApp_SimpleDesc:
        DB 11
        DATA16
        DW 3845
        DW 1
        DATA8
        DB 0
        DB 3
        DATA16
        DW SerialApp_ClusterList
        DATA8
        DB 3
        DATA16
        DW SerialApp_ClusterList
//   57 {
//   58   SERIALAPP_ENDPOINT,              //  int   Endpoint;
//   59   SERIALAPP_PROFID,                //  uint16 AppProfId[2];
//   60   SERIALAPP_DEVICEID,              //  uint16 AppDeviceId[2];
//   61   SERIALAPP_DEVICE_VERSION,        //  int   AppDevVer:4;
//   62   SERIALAPP_FLAGS,                 //  int   AppFlags:4;
//   63   SERIALAPP_MAX_CLUSTERS,          //  byte  AppNumInClusters;
//   64   (cId_t *)SerialApp_ClusterList,  //  byte *pAppInClusterList;
//   65   SERIALAPP_MAX_CLUSTERS,          //  byte  AppNumOutClusters; (Óë InClusters ±ŁłÖŇ»ÖÂ)
//   66   (cId_t *)SerialApp_ClusterList   //  byte *pAppOutClusterList;
//   67 };
//   68 
//   69 // --- V3.1 ¸üĐÂ: ¶ËµăĂčĘö·ű ---

        RSEG XDATA_I:XDATA:NOROOT(0)
//   70 endPointDesc_t SerialApp_epDesc =
SerialApp_epDesc:
        DATA8
        DS 6
        REQUIRE `?<Initializer for SerialApp_epDesc>`
        REQUIRE __INIT_XDATA_I
//   71 {
//   72   SERIALAPP_ENDPOINT,
//   73  &SerialApp_TaskID,
//   74   (SimpleDescriptionFormat_t *)&SerialApp_SimpleDesc,
//   75   noLatencyReqs
//   76 };
//   77 
//   78 /*********************************************************************
//   79  * TYPEDEFS
//   80  */
//   81 
//   82 /*********************************************************************
//   83  * GLOBAL VARIABLES
//   84  */

        RSEG XDATA_Z:XDATA:NOROOT(0)
        DATA8
//   85 devStates_t SampleApp_NwkState;   
SampleApp_NwkState:
        DS 1
        REQUIRE __INIT_XDATA_Z

        RSEG XDATA_Z:XDATA:NOROOT(0)
        DATA8
//   86 uint8 SerialApp_TaskID;           // ČÎÎń ID.
SerialApp_TaskID:
        DS 1
        REQUIRE __INIT_XDATA_Z
//   87 
//   88 /*********************************************************************
//   89  * EXTERNAL VARIABLES
//   90  */
//   91 
//   92 /*********************************************************************
//   93  * EXTERNAL FUNCTIONS
//   94  */
//   95 
//   96 /*********************************************************************
//   97  * LOCAL VARIABLES
//   98  */
//   99 
//  100 // --- ˝Úµă: ´«¸ĐĆ÷ĘýľÝ·˘ËÍµÄÄż±ęµŘÖ· (Đ­µ÷Ć÷) ---
//  101 #if !defined(ZDO_COORDINATOR)
//  102 static afAddrType_t SerialApp_CoordAddr =
//  103 {
//  104   .addrMode = (afAddrMode_t)Addr16Bit,
//  105   .endPoint = SERIALAPP_ENDPOINT, // Äż±ę¶Ëµă 11
//  106   .addr.shortAddr = 0x0000        // 0x0000 ÓŔÔ¶ĘÇĐ­µ÷Ć÷µÄ¶ĚµŘÖ·
//  107 };
//  108 
//  109 // --- ˝Úµă: ´«¸ĐĆ÷ĘýľÝ°üµÄĘÂÎń ID (·ŔÖąÖŘ¸´) ---
//  110 static uint8 SerialApp_TransID = 0;
//  111 #endif // !defined(ZDO_COORDINATOR)
//  112 
//  113 
//  114 /*********************************************************************
//  115  * LOCAL FUNCTIONS
//  116  */
//  117 
//  118 // (˝Úµă) V3.1 ¸¨ÖúşŻĘý: ´ň°ü TLV ˛˘·˘ËÍĘýľÝ
//  119 #if !defined(ZDO_COORDINATOR)
//  120 static void SerialApp_SendTLVData(uint8 *payloadData, uint8 payloadLen);
//  121 #endif
//  122 
//  123 // (Đ­µ÷Ć÷) V3.1 ĎűĎ˘´¦Ŕí: ˝âÎö TLV ˛˘´ňÓˇ
//  124 #if defined(ZDO_COORDINATOR)
//  125 static void SerialApp_ProcessMSGCmd( afIncomingMSGPacket_t *pkt );
//  126 #endif // ZDO_COORDINATOR
//  127 
//  128 
//  129 // (Đ­µ÷Ć÷) V4.7: V3.1 ąć·¶ Á´Â· B şŻĘý (ÔËĐĐÔÚ UART 0)
//  130 #if defined(ZDO_COORDINATOR)
//  131 
//  132 /**
//  133  * @brief (V4.7) UART ˝ÓĘŐ»Řµ÷şŻĘý (ŐĽÎ»·ű, ×¨ÓĂÓÚ UART 0)
//  134  */
//  135 static void SerialApp_UART_CB_BRIDGE(uint8 port, uint8 event);
//  136 
//  137 /**
//  138  * @brief (V4.3) ˝âÎöŔ´×Ô STM32 µÄĎÂĐĐÖˇ (ŐĽÎ»·ű)
//  139  */
//  140 static void ParseDownlinkFrame(uint8 *frameData, uint8 frameLen);
//  141 
//  142 /**
//  143  * @brief (V4.3) Ďň STM32 ·˘ËÍÉĎĐĐÖˇ (·â×° Á´Â· B)
//  144  */
//  145 static void SendUplinkFrame(uint16 srcAddr, uint8 *payload, uint8 payloadLen);
//  146 
//  147 /**
//  148  * @brief (V4.3) Ďň STM32 ·˘ËÍĐÄĚřÖˇ (·â×° Á´Â· B)
//  149  */
//  150 static void SendHeartbeat(void);
//  151 
//  152 /**
//  153  * @brief (V4.3) V3.1 ąć·¶: CRC-16/MODBUS ĽĆËă
//  154  */
//  155 static uint16 crc16_modbus(const uint8 *data, uint16 len);
//  156 
//  157 // V3.1 ąć·¶: CRC-16 ˛é±í [cite: STM32-Zigbee»ěşĎÍ¨ĐĹąć·¶V3.1(OTA).md, section 3.6]
//  158 // (V4.8) ĐŢ¸´Őâ¸ö±»˝Ř¶ĎµÄ±í

        RSEG XDATA_ROM_C:CONST:REORDER:NOROOT(0)
        DATA8
//  159 static const uint16 crc16_table[256] = {
crc16_table:
        DATA16
        DW 0
        DW 49345
        DW 49537
        DW 320
        DW 49921
        DW 960
        DW 640
        DW 49729
        DW 50689
        DW 1728
        DW 1920
        DW 51009
        DW 1280
        DW 50625
        DW 50305
        DW 1088
        DW 52225
        DW 3264
        DW 3456
        DW 52545
        DW 3840
        DW 53185
        DW 52865
        DW 3648
        DW 2560
        DW 51905
        DW 52097
        DW 2880
        DW 51457
        DW 2496
        DW 2176
        DW 51265
        DW 55297
        DW 6336
        DW 6528
        DW 55617
        DW 6912
        DW 56257
        DW 55937
        DW 6720
        DW 7680
        DW 57025
        DW 57217
        DW 8000
        DW 56577
        DW 7616
        DW 7296
        DW 56385
        DW 5120
        DW 54465
        DW 54657
        DW 5440
        DW 55041
        DW 6080
        DW 5760
        DW 54849
        DW 53761
        DW 4800
        DW 4992
        DW 54081
        DW 4352
        DW 53697
        DW 53377
        DW 4160
        DW 61441
        DW 12480
        DW 12672
        DW 61761
        DW 13056
        DW 62401
        DW 62081
        DW 12864
        DW 13824
        DW 63169
        DW 63361
        DW 14144
        DW 62721
        DW 13760
        DW 13440
        DW 62529
        DW 15360
        DW 64705
        DW 64897
        DW 15680
        DW 65281
        DW 16320
        DW 16000
        DW 65089
        DW 64001
        DW 15040
        DW 15232
        DW 64321
        DW 14592
        DW 63937
        DW 63617
        DW 14400
        DW 10240
        DW 59585
        DW 59777
        DW 10560
        DW 60161
        DW 11200
        DW 10880
        DW 59969
        DW 60929
        DW 11968
        DW 12160
        DW 61249
        DW 11520
        DW 60865
        DW 60545
        DW 11328
        DW 58369
        DW 9408
        DW 9600
        DW 58689
        DW 9984
        DW 59329
        DW 59009
        DW 9792
        DW 8704
        DW 58049
        DW 58241
        DW 9024
        DW 57601
        DW 8640
        DW 8320
        DW 57409
        DW 40961
        DW 24768
        DW 24960
        DW 41281
        DW 25344
        DW 41921
        DW 41601
        DW 25152
        DW 26112
        DW 42689
        DW 42881
        DW 26432
        DW 42241
        DW 26048
        DW 25728
        DW 42049
        DW 27648
        DW 44225
        DW 44417
        DW 27968
        DW 44801
        DW 28608
        DW 28288
        DW 44609
        DW 43521
        DW 27328
        DW 27520
        DW 43841
        DW 26880
        DW 43457
        DW 43137
        DW 26688
        DW 30720
        DW 47297
        DW 47489
        DW 31040
        DW 47873
        DW 31680
        DW 31360
        DW 47681
        DW 48641
        DW 32448
        DW 32640
        DW 48961
        DW 32000
        DW 48577
        DW 48257
        DW 31808
        DW 46081
        DW 29888
        DW 30080
        DW 46401
        DW 30464
        DW 47041
        DW 46721
        DW 30272
        DW 29184
        DW 45761
        DW 45953
        DW 29504
        DW 45313
        DW 29120
        DW 28800
        DW 45121
        DW 20480
        DW 37057
        DW 37249
        DW 20800
        DW 37633
        DW 21440
        DW 21120
        DW 37441
        DW 38401
        DW 22208
        DW 22400
        DW 38721
        DW 21760
        DW 38337
        DW 38017
        DW 21568
        DW 39937
        DW 23744
        DW 23936
        DW 40257
        DW 24320
        DW 40897
        DW 40577
        DW 24128
        DW 23040
        DW 39617
        DW 39809
        DW 23360
        DW 39169
        DW 22976
        DW 22656
        DW 38977
        DW 34817
        DW 18624
        DW 18816
        DW 35137
        DW 19200
        DW 35777
        DW 35457
        DW 19008
        DW 19968
        DW 36545
        DW 36737
        DW 20288
        DW 36097
        DW 19904
        DW 19584
        DW 35905
        DW 17408
        DW 33985
        DW 34177
        DW 17728
        DW 34561
        DW 18368
        DW 18048
        DW 34369
        DW 33281
        DW 17088
        DW 17280
        DW 33601
        DW 16640
        DW 33217
        DW 32897
        DW 16448
//  160     0x0000, 0xC0C1, 0xC181, 0x0140, 0xC301, 0x03C0, 0x0280, 0xC241,
//  161     0xC601, 0x06C0, 0x0780, 0xC741, 0x0500, 0xC5C1, 0xC481, 0x0440,
//  162     0xCC01, 0x0CC0, 0x0D80, 0xCD41, 0x0F00, 0xCFC1, 0xCE81, 0x0E40,
//  163     0x0A00, 0xCAC1, 0xCB81, 0x0B40, 0xC901, 0x09C0, 0x0880, 0xC841,
//  164     0xD801, 0x18C0, 0x1980, 0xD941, 0x1B00, 0xDBC1, 0xDA81, 0x1A40,
//  165     0x1E00, 0xDEC1, 0xDF81, 0x1F40, 0xDD01, 0x1DC0, 0x1C80, 0xDC41,
//  166     0x1400, 0xD4C1, 0xD581, 0x1540, 0xD701, 0x17C0, 0x1680, 0xD641,
//  167     0xD201, 0x12C0, 0x1380, 0xD341, 0x1100, 0xD1C1, 0xD081, 0x1040,
//  168     0xF001, 0x30C0, 0x3180, 0xF141, 0x3300, 0xF3C1, 0xF281, 0x3240,
//  169     0x3600, 0xF6C1, 0xF781, 0x3740, 0xF501, 0x35C0, 0x3480, 0xF441,
//  170     0x3C00, 0xFCC1, 0xFD81, 0x3D40, 0xFF01, 0x3FC0, 0x3E80, 0xFE41,
//  171     0xFA01, 0x3AC0, 0x3B80, 0xFB41, 0x3900, 0xF9C1, 0xF881, 0x3840,
//  172     0x2800, 0xE8C1, 0xE981, 0x2940, 0xEB01, 0x2BC0, 0x2A80, 0xEA41,
//  173     0xEE01, 0x2EC0, 0x2F80, 0xEF41, 0x2D00, 0xEDC1, 0xEC81, 0x2C40,
//  174     0xE401, 0x24C0, 0x2580, 0xE541, 0x2700, 0xE7C1, 0xE681, 0x2640,
//  175     0x2200, 0xE2C1, 0xE381, 0x2340, 0xE101, 0x21C0, 0x2080, 0xE041,
//  176     0xA001, 0x60C0, 0x6180, 0xA141, 0x6300, 0xA3C1, 0xA281, 0x6240,
//  177     0x6600, 0xA6C1, 0xA781, 0x6740, 0xA501, 0x65C0, 0x6480, 0xA441,
//  178     0x6C00, 0xACC1, 0xAD81, 0x6D40, 0xAF01, 0x6FC0, 0x6E80, 0xAE41,
//  179     0xAA01, 0x6AC0, 0x6B80, 0xAB41, 0x6900, 0xA9C1, 0xA881, 0x6840,
//  180     0x7800, 0xB8C1, 0xB981, 0x7940, 0xBB01, 0x7BC0, 0x7A80, 0xBA41,
//  181     0xBE01, 0x7EC0, 0x7F80, 0xBF41, 0x7D00, 0xBDC1, 0xBC81, 0x7C40,
//  182     0xB401, 0x74C0, 0x7580, 0xB541, 0x7700, 0xB7C1, 0xB681, 0x7640,
//  183     0x7200, 0xB2C1, 0xB381, 0x7340, 0xB101, 0x71C0, 0x7080, 0xB041,
//  184     0x5000, 0x90C1, 0x9181, 0x5140, 0x9301, 0x53C0, 0x5280, 0x9241,
//  185     0x9601, 0x56C0, 0x5780, 0x9741, 0x5500, 0x95C1, 0x9481, 0x5440,
//  186     0x9C01, 0x5CC0, 0x5D80, 0x9D41, 0x5F00, 0x9FC1, 0x9E81, 0x5E40,
//  187     0x5A00, 0x9AC1, 0x9B81, 0x5B40, 0x9901, 0x59C0, 0x5880, 0x9841,
//  188     0x8801, 0x48C0, 0x4980, 0x8941, 0x4B00, 0x8BC1, 0x8A81, 0x4A40,
//  189     0x4E00, 0x8EC1, 0x8F81, 0x4F40, 0x8D01, 0x4DC0, 0x4C80, 0x8C41,
//  190     0x4400, 0x84C1, 0x8581, 0x4540, 0x8701, 0x47C0, 0x4680, 0x8641,
//  191     0x8201, 0x42C0, 0x4380, 0x8341, 0x4100, 0x81C1, 0x8081, 0x4040
//  192 };
//  193 
//  194 #endif // ZDO_COORDINATOR
//  195 
//  196 
//  197 /*********************************************************************
//  198  * @fn      SerialApp_Init
//  199  *
//  200  * @brief   Ó¦ÓĂČÎÎńłőĘĽ»ŻşŻĘýˇŁ
//  201  *
//  202  * @param   task_id - OSAL ·ÖĹäµÄČÎÎń ID.
//  203  *
//  204  * @return  ÎŢ
//  205  */

        RSEG BANKED_CODE:CODE:NOROOT(0)
//  206 void SerialApp_Init( uint8 task_id )
SerialApp_Init:
        CFI Block cfiBlock0 Using cfiCommon0
        CFI Function SerialApp_Init
        CODE
//  207 {
        FUNCALL SerialApp_Init, afRegister
        LOCFRAME ISTACK, 0, STACK
        LOCFRAME PSTACK, 0, STACK
        LOCFRAME XSTACK, 38, STACK
        LOCFRAME IOVERLAY, 0, STATIC
        LOCFRAME DOVERLAY, 0, STATIC
        ARGFRAME ISTACK, 0, STACK
        ARGFRAME PSTACK, 0, STACK
        ARGFRAME XSTACK, 38, STACK
        ARGFRAME IOVERLAY, 0, STATIC
        ARGFRAME DOVERLAY, 0, STATIC
        FUNCALL SerialApp_Init, HalUARTOpen
        LOCFRAME ISTACK, 0, STACK
        LOCFRAME PSTACK, 0, STACK
        LOCFRAME XSTACK, 38, STACK
        LOCFRAME IOVERLAY, 0, STATIC
        LOCFRAME DOVERLAY, 0, STATIC
        ARGFRAME ISTACK, 0, STACK
        ARGFRAME PSTACK, 0, STACK
        ARGFRAME XSTACK, 38, STACK
        ARGFRAME IOVERLAY, 0, STATIC
        ARGFRAME DOVERLAY, 0, STATIC
        FUNCALL SerialApp_Init, osal_start_timerEx
        LOCFRAME ISTACK, 0, STACK
        LOCFRAME PSTACK, 0, STACK
        LOCFRAME XSTACK, 38, STACK
        LOCFRAME IOVERLAY, 0, STATIC
        LOCFRAME DOVERLAY, 0, STATIC
        ARGFRAME ISTACK, 0, STACK
        ARGFRAME PSTACK, 0, STACK
        ARGFRAME XSTACK, 38, STACK
        ARGFRAME IOVERLAY, 0, STATIC
        ARGFRAME DOVERLAY, 0, STATIC
        FUNCALL SerialApp_Init, Sensor_Init
        LOCFRAME ISTACK, 0, STACK
        LOCFRAME PSTACK, 0, STACK
        LOCFRAME XSTACK, 38, STACK
        LOCFRAME IOVERLAY, 0, STATIC
        LOCFRAME DOVERLAY, 0, STATIC
        ARGFRAME ISTACK, 0, STACK
        ARGFRAME PSTACK, 0, STACK
        ARGFRAME XSTACK, 38, STACK
        ARGFRAME IOVERLAY, 0, STATIC
        ARGFRAME DOVERLAY, 0, STATIC
        MOV     A,#-0x9
        LCALL   ?BANKED_ENTER_XDATA
        CFI DPH0 load(1, XDATA, add(CFA_XSP16, literal(-1)))
        CFI DPL0 load(1, XDATA, add(CFA_XSP16, literal(-2)))
        CFI ?BRET_EXT load(1, XDATA, add(CFA_XSP16, literal(-3)))
        CFI ?RET_HIGH load(1, XDATA, add(CFA_XSP16, literal(-4)))
        CFI ?RET_LOW load(1, XDATA, add(CFA_XSP16, literal(-5)))
        CFI R7 load(1, XDATA, add(CFA_XSP16, literal(-6)))
        CFI V0 load(1, XDATA, add(CFA_XSP16, literal(-7)))
        CFI VB load(1, XDATA, add(CFA_XSP16, literal(-8)))
        CFI R6 load(1, XDATA, add(CFA_XSP16, literal(-9)))
        CFI CFA_SP SP+0
        CFI CFA_XSP16 add(XSP16, 9)
        ; Saved register size: 9
        ; Auto size: 29
        MOV     A,#-0x1d
        LCALL   ?ALLOC_XSTACK8
        CFI CFA_XSP16 add(XSP16, 38)
        MOV     A,R1
        MOV     R6,A
//  208   SerialApp_TaskID = task_id;
        MOV     DPTR,#SerialApp_TaskID
        MOVX    @DPTR,A
//  209   SampleApp_NwkState = DEV_INIT;       
        MOV     DPTR,#SampleApp_NwkState
        MOV     A,#0x1
        MOVX    @DPTR,A
//  210   
//  211   // ×˘˛á AF ¶Ëµă
//  212   afRegister( (endPointDesc_t *)&SerialApp_epDesc );
        ; Setup parameters for call to function afRegister
        MOV     R2,#SerialApp_epDesc & 0xff
        MOV     R3,#(SerialApp_epDesc >> 8) & 0xff
        LCALL   ??afRegister?relay
//  213 
//  214   // (V4.7) --- Đ­µ÷Ć÷: ĹäÖĂ µĄ´®żÚ (UART 0) ---
//  215 #if defined(ZDO_COORDINATOR)
//  216   {
//  217     halUARTCfg_t uartConfig;
//  218     
//  219     // --- 0. ĹäÖĂÍâÉčŇý˝ĹÓłÉä (UART 0 @ ±¸ÓĂÎ»ÖĂ 1) ---
//  220     // (U0CFG = 0, U1CFG = 0)
//  221     PERCFG &= ~0x03; // Č·±Ł UART0 şÍ UART1 ¶ĽÔÚ±¸ÓĂÎ»ÖĂ 1
        ANL     0xf1,#0xfc
//  222     
//  223     // --- 1. ĹäÖĂ ÇĹ˝ÓĘýľÝ¶ËżÚ (UART 0 @ P0.2/P0.3, 115200 ˛¨ĚŘÂĘ) ---
//  224     P0SEL |= 0x0C;   // 0b00001100: P0.2 şÍ P0.3 ÉčÖĂÎŞÍâÉčą¦ÄÜ
        ORL     0xf3,#0xc
//  225     P0DIR &= ~0x04;  // P0.2 (RXD) ÉčÖĂÎŞĘäČë
        ANL     0xfd,#0xfb
//  226     P0DIR |= 0x08;   // P0.3 (TXD) ÉčÖĂÎŞĘäłö
        ORL     0xfd,#0x8
//  227     
//  228     // (V4.7) Č·±Ł P0 ÓĹĎČÓÚ P2
//  229     P2DIR &= ~0XC0;
        ANL     0xff,#0x3f
//  230   
//  231     uartConfig.configured           = TRUE;
        MOV     DPL,?XSP + 0
        MOV     DPH,?XSP + 1
        MOV     A,#0x1
        MOVX    @DPTR,A
//  232     uartConfig.baudRate             = BRIDGE_BAUD; // (V4.7) ąŘĽü: ĐŢ¸ÄÎŞ 115200
        LCALL   ?XSTACK_DISP0_8
        MOV     A,#0x4
        MOVX    @DPTR,A
//  233     uartConfig.flowControl          = FALSE;
        MOV     A,#0x2
        LCALL   ?XSTACK_DISP0_8
        CLR     A
        MOVX    @DPTR,A
//  234     uartConfig.flowControlThreshold = 0;
        MOV     A,#0x3
        LCALL   ?XSTACK_DISP0_8
        CLR     A
        MOVX    @DPTR,A
        INC     DPTR
        MOVX    @DPTR,A
//  235     uartConfig.rx.maxBufSize        = 128;   // (V4.7) ąŘĽü: żŞĆô˝ÓĘŐ
        MOV     A,#0xa
        LCALL   ?XSTACK_DISP0_8
        MOV     A,#-0x80
        MOVX    @DPTR,A
        INC     DPTR
        CLR     A
        MOVX    @DPTR,A
//  236     uartConfig.tx.maxBufSize        = 128;
        MOV     A,#0x12
        LCALL   ?XSTACK_DISP0_8
        MOV     A,#-0x80
        MOVX    @DPTR,A
        INC     DPTR
        CLR     A
        MOVX    @DPTR,A
//  237     uartConfig.idleTimeout          = 6;
        MOV     A,#0x5
        LCALL   ?XSTACK_DISP0_8
        MOV     A,#0x6
        MOVX    @DPTR,A
//  238     uartConfig.intEnable            = TRUE;  // (V4.7) ąŘĽü: żŞĆôÖĐ¶Ď
        MOV     A,#0x16
        LCALL   ?XSTACK_DISP0_8
        MOV     A,#0x1
        MOVX    @DPTR,A
//  239     uartConfig.callBackFunc         = SerialApp_UART_CB_BRIDGE; // (V4.7) ąŘĽü: ÉčÖĂ»Řµ÷
        MOV     A,#0x1b
        LCALL   ?XSTACK_DISP0_8
        MOV     A,#??SerialApp_UART_CB_BRIDGE?relay & 0xff
        MOVX    @DPTR,A
        INC     DPTR
        MOV     A,#(??SerialApp_UART_CB_BRIDGE?relay >> 8) & 0xff
        MOVX    @DPTR,A
//  240     HalUARTOpen (SERIAL_APP_PORT, &uartConfig); // ´ňżŞ UART 0
        ; Setup parameters for call to function HalUARTOpen
        MOV     DPL,?XSP + 0
        MOV     DPH,?XSP + 1
        MOV     R2,DPL
        MOV     R3,DPH
        MOV     R1,#0x0
        LCALL   ??HalUARTOpen?relay
//  241     
//  242     
//  243     // (V4.3) Ćô¶Ż V3.1 ąć·¶ĐÄĚř¶¨Ę±Ć÷
//  244     osal_start_timerEx(SerialApp_TaskID, HEARTBEAT_EVT, 5000);
        ; Setup parameters for call to function osal_start_timerEx
        MOV     R4,#-0x78
        MOV     R5,#0x13
        MOV     R2,#0x8
        MOV     R3,#0x0
        MOV     DPTR,#SerialApp_TaskID
        MOVX    A,@DPTR
        MOV     R1,A
        LCALL   ??osal_start_timerEx?relay
//  245   }
//  246   
//  247   // (V4.9) --- ÖŐ¶Ë/Â·ÓÉ: ĹäÖĂ µ÷ĘÔ UART (UART 0) @ 115200 ---
//  248 #else 
//  249   {
//  250     halUARTCfg_t uartConfig;
//  251   
//  252     // Â·ÓÉ/ÖŐ¶Ë ÍłŇ»ĘąÓĂ 115200 ˛¨ĚŘÂĘ
//  253     uartConfig.configured           = TRUE;
//  254     uartConfig.baudRate             = BRIDGE_BAUD; 
//  255     uartConfig.flowControl          = FALSE;
//  256     uartConfig.flowControlThreshold = 0;
//  257     uartConfig.rx.maxBufSize        = 0; // ˝ÚµăÄ¬ČĎ˛»˝ÓĘŐ´®żÚĘýľÝ
//  258     uartConfig.tx.maxBufSize        = 128;
//  259     uartConfig.idleTimeout          = 6;
//  260     uartConfig.intEnable            = FALSE;
//  261     uartConfig.callBackFunc         = NULL; 
//  262     HalUARTOpen (SERIAL_APP_PORT, &uartConfig);
//  263   }
//  264 #endif // ZDO_COORDINATOR
//  265 
//  266   
//  267   //  --- ŇĆłýËůÓĐĐ­µ÷Ć÷µÄĆô¶Ż´ňÓˇĐĹĎ˘ ---
//  268   #if defined(ZDO_COORDINATOR)
//  269     // HalUARTWrite(SERIAL_APP_PORT, (uint8*)"Coordinator Ready (V4.7 Single UART)\r\n", 39);
//  270   #elif defined(ZDO_ENDDEVICE)
//  271     //  Â·ÓÉ/ÖŐ¶ËµÄ´ňÓˇĐĹĎ˘ĘÇ±ŁÁôµÄ
//  272     HalUARTWrite(SERIAL_APP_PORT, (uint8*)"EndDevice Ready (V4.9 UART@115200)\r\n", 36);
//  273   #else
//  274     HalUARTWrite(SERIAL_APP_PORT, (uint8*)"Router Ready (V4.9 UART@115200)\r\n", 33);
//  275   #endif
//  276 
//  277   // --- łőĘĽ»Ż´«¸ĐĆ÷ąÜŔí˛ă ---
//  278   Sensor_Init( task_id );
        ; Setup parameters for call to function Sensor_Init
        MOV     A,R6
        MOV     R1,A
        LCALL   ??Sensor_Init?relay
//  279 }
        MOV     A,#0x1d
        LCALL   ?DEALLOC_XSTACK8
        CFI CFA_XSP16 add(XSP16, 9)
        MOV     R7,#0x1
        LJMP    ?BANKED_LEAVE_XDATA
        CFI EndBlock cfiBlock0
        REQUIRE PERCFG
        REQUIRE P0SEL
        REQUIRE P0DIR
        REQUIRE P2DIR
//  280 
//  281 /*********************************************************************
//  282  * @fn      SerialApp_ProcessEvent
//  283  *
//  284  * @brief   Ó¦ÓĂČÎÎńĘÂĽţ´¦ŔíĆ÷ˇŁ
//  285  *
//  286  * @param   task_id  - ČÎÎń ID.
//  287  * @param   events   - ĘÂĽţÎ»ÍĽ.
//  288  *
//  289  * @return  Î´´¦ŔíµÄĘÂĽţ.
//  290  */

        RSEG BANKED_CODE:CODE:NOROOT(0)
//  291 UINT16 SerialApp_ProcessEvent( uint8 task_id, UINT16 events )
SerialApp_ProcessEvent:
        CFI Block cfiBlock1 Using cfiCommon0
        CFI Function SerialApp_ProcessEvent
        CODE
//  292 {
        FUNCALL SerialApp_ProcessEvent, HalLedSet
        LOCFRAME ISTACK, 0, STACK
        LOCFRAME PSTACK, 0, STACK
        LOCFRAME XSTACK, 18, STACK
        LOCFRAME IOVERLAY, 0, STATIC
        LOCFRAME DOVERLAY, 0, STATIC
        ARGFRAME ISTACK, 0, STACK
        ARGFRAME PSTACK, 0, STACK
        ARGFRAME XSTACK, 18, STACK
        ARGFRAME IOVERLAY, 0, STATIC
        ARGFRAME DOVERLAY, 0, STATIC
        FUNCALL SerialApp_ProcessEvent, osal_msg_deallocate
        LOCFRAME ISTACK, 0, STACK
        LOCFRAME PSTACK, 0, STACK
        LOCFRAME XSTACK, 18, STACK
        LOCFRAME IOVERLAY, 0, STATIC
        LOCFRAME DOVERLAY, 0, STATIC
        ARGFRAME ISTACK, 0, STACK
        ARGFRAME PSTACK, 0, STACK
        ARGFRAME XSTACK, 18, STACK
        ARGFRAME IOVERLAY, 0, STATIC
        ARGFRAME DOVERLAY, 0, STATIC
        FUNCALL SerialApp_ProcessEvent, osal_msg_receive
        LOCFRAME ISTACK, 0, STACK
        LOCFRAME PSTACK, 0, STACK
        LOCFRAME XSTACK, 18, STACK
        LOCFRAME IOVERLAY, 0, STATIC
        LOCFRAME DOVERLAY, 0, STATIC
        ARGFRAME ISTACK, 0, STACK
        ARGFRAME PSTACK, 0, STACK
        ARGFRAME XSTACK, 18, STACK
        ARGFRAME IOVERLAY, 0, STATIC
        ARGFRAME DOVERLAY, 0, STATIC
        FUNCALL SerialApp_ProcessEvent, SendUplinkFrame
        LOCFRAME ISTACK, 0, STACK
        LOCFRAME PSTACK, 0, STACK
        LOCFRAME XSTACK, 18, STACK
        LOCFRAME IOVERLAY, 0, STATIC
        LOCFRAME DOVERLAY, 0, STATIC
        ARGFRAME ISTACK, 0, STACK
        ARGFRAME PSTACK, 0, STACK
        ARGFRAME XSTACK, 18, STACK
        ARGFRAME IOVERLAY, 0, STATIC
        ARGFRAME DOVERLAY, 0, STATIC
        FUNCALL SerialApp_ProcessEvent, HalLedSet
        LOCFRAME ISTACK, 0, STACK
        LOCFRAME PSTACK, 0, STACK
        LOCFRAME XSTACK, 18, STACK
        LOCFRAME IOVERLAY, 0, STATIC
        LOCFRAME DOVERLAY, 0, STATIC
        ARGFRAME ISTACK, 0, STACK
        ARGFRAME PSTACK, 0, STACK
        ARGFRAME XSTACK, 18, STACK
        ARGFRAME IOVERLAY, 0, STATIC
        ARGFRAME DOVERLAY, 0, STATIC
        FUNCALL SerialApp_ProcessEvent, crc16_modbus
        LOCFRAME ISTACK, 0, STACK
        LOCFRAME PSTACK, 0, STACK
        LOCFRAME XSTACK, 18, STACK
        LOCFRAME IOVERLAY, 0, STATIC
        LOCFRAME DOVERLAY, 0, STATIC
        ARGFRAME ISTACK, 0, STACK
        ARGFRAME PSTACK, 0, STACK
        ARGFRAME XSTACK, 18, STACK
        ARGFRAME IOVERLAY, 0, STATIC
        ARGFRAME DOVERLAY, 0, STATIC
        FUNCALL SerialApp_ProcessEvent, HalUARTWrite
        LOCFRAME ISTACK, 0, STACK
        LOCFRAME PSTACK, 0, STACK
        LOCFRAME XSTACK, 18, STACK
        LOCFRAME IOVERLAY, 0, STATIC
        LOCFRAME DOVERLAY, 0, STATIC
        ARGFRAME ISTACK, 0, STACK
        ARGFRAME PSTACK, 0, STACK
        ARGFRAME XSTACK, 18, STACK
        ARGFRAME IOVERLAY, 0, STATIC
        ARGFRAME DOVERLAY, 0, STATIC
        FUNCALL SerialApp_ProcessEvent, osal_start_timerEx
        LOCFRAME ISTACK, 0, STACK
        LOCFRAME PSTACK, 0, STACK
        LOCFRAME XSTACK, 18, STACK
        LOCFRAME IOVERLAY, 0, STATIC
        LOCFRAME DOVERLAY, 0, STATIC
        ARGFRAME ISTACK, 0, STACK
        ARGFRAME PSTACK, 0, STACK
        ARGFRAME XSTACK, 18, STACK
        ARGFRAME IOVERLAY, 0, STATIC
        ARGFRAME DOVERLAY, 0, STATIC
        MOV     A,#-0xc
        LCALL   ?BANKED_ENTER_XDATA
        CFI DPH0 load(1, XDATA, add(CFA_XSP16, literal(-1)))
        CFI DPL0 load(1, XDATA, add(CFA_XSP16, literal(-2)))
        CFI ?BRET_EXT load(1, XDATA, add(CFA_XSP16, literal(-3)))
        CFI ?RET_HIGH load(1, XDATA, add(CFA_XSP16, literal(-4)))
        CFI ?RET_LOW load(1, XDATA, add(CFA_XSP16, literal(-5)))
        CFI R7 load(1, XDATA, add(CFA_XSP16, literal(-6)))
        CFI V3 load(1, XDATA, add(CFA_XSP16, literal(-7)))
        CFI V2 load(1, XDATA, add(CFA_XSP16, literal(-8)))
        CFI V1 load(1, XDATA, add(CFA_XSP16, literal(-9)))
        CFI V0 load(1, XDATA, add(CFA_XSP16, literal(-10)))
        CFI VB load(1, XDATA, add(CFA_XSP16, literal(-11)))
        CFI R6 load(1, XDATA, add(CFA_XSP16, literal(-12)))
        CFI CFA_SP SP+0
        CFI CFA_XSP16 add(XSP16, 12)
        ; Saved register size: 12
        ; Auto size: 6
        MOV     A,#-0x6
        LCALL   ?ALLOC_XSTACK8
        CFI CFA_XSP16 add(XSP16, 18)
        MOV     A,R2
        MOV     R6,A
        MOV     A,R3
        MOV     R7,A
//  293   (void)task_id;  // Î´ĘąÓĂµÄ˛ÎĘý
//  294   
//  295   if ( events & SYS_EVENT_MSG )
        ANL     A,#0x80
        JNZ     ??SerialApp_ProcessEvent_0
//  296   {
//  297     afIncomingMSGPacket_t *MSGpkt;
//  298 
//  299     while ( (MSGpkt = (afIncomingMSGPacket_t *)osal_msg_receive( SerialApp_TaskID )) )
//  300     {
//  301       switch ( MSGpkt->hdr.event )
//  302       {
//  303       case AF_INCOMING_MSG_CMD:
//  304         // --- (V4.5) Đ­µ÷Ć÷: ´¦Ŕí´«ČëµÄ Zigbee ĎűĎ˘ (Ë«żÚ×Ş·˘) ---
//  305 #if defined(ZDO_COORDINATOR)
//  306         SerialApp_ProcessMSGCmd( MSGpkt );
//  307 #endif
//  308         break;
//  309         
//  310       case ZDO_STATE_CHANGE:
//  311         SampleApp_NwkState = (devStates_t)(MSGpkt->hdr.status);
//  312         
//  313         // (V4.0) --- ´ňÓˇÍřÂç×´Ě¬±ä»Ż (µ÷ĘÔĐĹĎ˘) ---
//  314         {
//  315           // (V4.7) Đ­µ÷Ć÷˛»ÔŮ´ňÓˇ×´Ě¬, Ö»ČĂ Â·ÓÉ/ÖŐ¶Ë ´ňÓˇ
//  316 #if !defined(ZDO_COORDINATOR)
//  317           char printBuf[40]; // ľÖ˛ż»şłĺÇř
//  318           
//  319           if ( (SampleApp_NwkState == DEV_ZB_COORD)      // 0x09
//  320               || (SampleApp_NwkState == DEV_ROUTER)        // 0x07
//  321               || (SampleApp_NwkState == DEV_END_DEVICE) ) // 0x06
//  322           {
//  323               // Éč±¸ŇŃČëÍř
//  324               sprintf(printBuf, "Network: Joined/Formed (State: 0x%02X)\r\n", SampleApp_NwkState);
//  325               HalUARTWrite(SERIAL_APP_PORT, (uint8*)printBuf, strlen(printBuf)); 
//  326               
//  327               HalLedSet(HAL_LED_1, HAL_LED_MODE_ON);
//  328               
//  329               // --- ˝Úµă: Ćô¶Ż´«¸ĐĆ÷ÖÜĆÚĐÔ¶ÁČˇ ---
//  330               Sensor_StartPeriodic();
//  331           }
//  332           else
//  333           {
//  334               sprintf(printBuf, "Network: State changed (State: 0x%02X)\r\n", SampleApp_NwkState);
//  335               HalUARTWrite(SERIAL_APP_PORT, (uint8*)printBuf, strlen(printBuf)); 
//  336               HalLedSet(HAL_LED_1, HAL_LED_MODE_OFF); 
//  337           }
//  338 #else
//  339           // (V4.7) Đ­µ÷Ć÷ČëÍřşó, Ö»ÁÁµĆ, ˛»´ňÓˇ
//  340           if ( (SampleApp_NwkState == DEV_ZB_COORD) )
//  341           {
//  342               HalLedSet(HAL_LED_1, HAL_LED_MODE_ON);
//  343           }
//  344           else
//  345           {
//  346               HalLedSet(HAL_LED_1, HAL_LED_MODE_OFF);
//  347           }
//  348 #endif // !defined(ZDO_COORDINATOR)
//  349         }
//  350         break;
//  351 
//  352       default:
//  353         break;
//  354       }
//  355 
//  356       // ĘÍ·ĹĎűĎ˘
//  357       osal_msg_deallocate( (uint8 *)MSGpkt );
//  358     }
//  359 
//  360     return ( events ^ SYS_EVENT_MSG );
//  361   }
//  362 
//  363 // --- (V4.1) ÖÜĆÚĐÔ´«¸ĐĆ÷¶ÁČˇĘÂĽţ (Â·ÓÉ/ÖŐ¶Ë) ---
//  364  if ( events & SENSOR_READ_EVT )
        MOV     A,R6
        ANL     A,#0x4
        JNZ     $+5
        LJMP    ??SerialApp_ProcessEvent_1 & 0xFFFF
//  365  {
//  366 #if !defined(ZDO_COORDINATOR)
//  367     // --- ÇżÖĆ´ňÓˇµ±Ç°×´Ě¬ ---
//  368     char printBuf[40];
//  369     sprintf(printBuf, "Debug: Current NwkState = 0x%02X\r\n", SampleApp_NwkState);
//  370     HalUARTWrite(SERIAL_APP_PORT, (uint8*)printBuf, strlen(printBuf));
//  371     
//  372     // Čçąű×´Ě¬˛»ĘÇ 0x07 (Router)Ł¬Ôňł˘ĘÔĽĚĐř´ňÓˇ×´Ě¬Ł¬˛»¶ÁČˇ´«¸ĐĆ÷
//  373     if (SampleApp_NwkState != DEV_ROUTER) {
//  374          // Ăż 2 ĂëĽě˛éŇ»´Î×´Ě¬Ł¬Ö±µ˝ČëÍř
//  375          osal_start_timerEx(SerialApp_TaskID, SENSOR_READ_EVT, 2000); 
//  376     } else {
//  377          Sensor_StartMeasurement();
//  378     }
//  379 #endif 
//  380     return ( events ^ SENSOR_READ_EVT );
        MOV     A,R6
        XRL     A,#0x4
??SerialApp_ProcessEvent_2:
        MOV     R2,A
        LJMP    ??SerialApp_ProcessEvent_3 & 0xFFFF
//  381 }
??SerialApp_ProcessEvent_4:
        ; Setup parameters for call to function HalLedSet
        MOV     R2,#0x0
??SerialApp_ProcessEvent_5:
        MOV     R1,#0x1
        LCALL   ??HalLedSet?relay
??SerialApp_ProcessEvent_6:
        ; Setup parameters for call to function osal_msg_deallocate
        MOV     R2,?V0 + 0
        MOV     R3,?V0 + 1
        LCALL   ??osal_msg_deallocate?relay
??SerialApp_ProcessEvent_0:
        ; Setup parameters for call to function osal_msg_receive
        MOV     DPTR,#SerialApp_TaskID
        MOVX    A,@DPTR
        MOV     R1,A
        LCALL   ??osal_msg_receive?relay
        MOV     ?V0 + 0,R2
        MOV     ?V0 + 1,R3
        MOV     A,R2
        ORL     A,?V0 + 1
        JZ      ??SerialApp_ProcessEvent_7
        MOV     DPL,R2
        MOV     DPH,R3
        MOVX    A,@DPTR
        ADD     A,#-0x1a
        JZ      ??SerialApp_ProcessEvent_8
        ADD     A,#0x49
        JZ      ??SerialApp_ProcessEvent_9
        SJMP    ??SerialApp_ProcessEvent_6
??SerialApp_ProcessEvent_8:
        INC     DPTR
        INC     DPTR
        INC     DPTR
        INC     DPTR
        INC     DPTR
        INC     DPTR
        MOVX    A,@DPTR
        MOV     R2,A
        INC     DPTR
        MOVX    A,@DPTR
        MOV     R3,A
        MOV     A,?V0 + 0
        ADD     A,#0x21
        MOV     DPL,A
        MOV     A,?V0 + 1
        ADDC    A,#0x0
        MOV     DPH,A
        MOVX    A,@DPTR
        MOV     R4,A
        INC     DPTR
        MOVX    A,@DPTR
        MOV     R5,A
        MOV     A,?V0 + 0
        ADD     A,#0x1f
        MOV     DPL,A
        MOV     A,?V0 + 1
        ADDC    A,#0x0
        MOV     DPH,A
        MOVX    A,@DPTR
        MOV     R1,A
        MOV     DPL,?V0 + 0
        MOV     DPH,?V0 + 1
        INC     DPTR
        INC     DPTR
        INC     DPTR
        INC     DPTR
        MOVX    A,@DPTR
        MOV     ?V0 + 2,A
        INC     DPTR
        MOVX    A,@DPTR
        MOV     ?V0 + 3,A
        MOV     A,#0x1
        XRL     A,?V0 + 2
        JNZ     ??SerialApp_ProcessEvent_10
        MOV     A,?V0 + 3
??SerialApp_ProcessEvent_10:
        JZ      ??SerialApp_ProcessEvent_11
        MOV     A,#0x3
        XRL     A,?V0 + 2
        JNZ     ??SerialApp_ProcessEvent_12
        MOV     A,?V0 + 3
??SerialApp_ProcessEvent_12:
        JNZ     ??SerialApp_ProcessEvent_6
??SerialApp_ProcessEvent_11:
        ; Setup parameters for call to function SendUplinkFrame
        LCALL   ??SendUplinkFrame?relay
        SJMP    ??SerialApp_ProcessEvent_6
??SerialApp_ProcessEvent_9:
        INC     DPTR
        MOVX    A,@DPTR
        MOV     DPTR,#SampleApp_NwkState
        MOVX    @DPTR,A
        XRL     A,#0x9
        JZ      $+5
        LJMP    ??SerialApp_ProcessEvent_4 & 0xFFFF
        ; Setup parameters for call to function HalLedSet
        MOV     R2,#0x1
        LJMP    ??SerialApp_ProcessEvent_5 & 0xFFFF
??SerialApp_ProcessEvent_7:
        MOV     A,R6
        MOV     R2,A
        MOV     A,R7
        XRL     A,#0x80
??SerialApp_ProcessEvent_13:
        MOV     R3,A
        SJMP    ??SerialApp_ProcessEvent_3
//  382   
//  383   // --- (V4.1) ´«¸ĐĆ÷ĘýľÝľÍĐ÷ĘÂĽţ (Â·ÓÉ/ÖŐ¶Ë) ---
//  384   if ( events & SHT30_DATA_READY_EVT )
??SerialApp_ProcessEvent_1:
        MOV     A,R6
        ANL     A,#0x10
        JZ      ??SerialApp_ProcessEvent_14
//  385   {
//  386 #if !defined(ZDO_COORDINATOR)
//  387     
//  388     uint8 payloadData[10]; 
//  389     uint8 payloadLen;
//  390     
//  391     payloadLen = Sensor_ReadData(payloadData);
//  392 
//  393     if (payloadLen > 0)
//  394     {
//  395       // (V4.0) --- 3. ÔÚ±ľµŘ´ňÓˇ´«¸ĐĆ÷ĘýľÝ ---
//  396       {
//  397         char printBuf[80];
//  398         uint8 deviceType = (uint8)Sensor_GetDeviceType();
//  399         
//  400         if (deviceType == DEVICE_TYPE_SHT30 && payloadLen == 8) // SHT30
//  401         {
//  402           float temp, humi;
//  403           osal_memcpy(&temp, &payloadData[0], 4);
//  404           osal_memcpy(&humi, &payloadData[4], 4);
//  405           sprintf(printBuf, "Sensor: Local SHT30, Temp: %dC, Humi: %d%%\r\n\r\n", (int)temp, (int)humi); 
//  406         }
//  407         else if ((deviceType == DEVICE_TYPE_MQ2 || deviceType == DEVICE_TYPE_MQ5) && payloadLen == 2) // MQx
//  408         {
//  409           uint16 adcValue = (uint16)payloadData[0] | ((uint16)payloadData[1] << 8);
//  410           sprintf(printBuf, "Sensor: Local MQx (0x%02X), ADC: %u\r\n\r\n", deviceType, adcValue); 
//  411         }
//  412         else
//  413         {
//  414           sprintf(printBuf, "Sensor: Local Unknown (0x%02X), Len: %d\r\n\r\n", deviceType, payloadLen); 
//  415         }
//  416         HalUARTWrite(SERIAL_APP_PORT, (uint8*)printBuf, strlen(printBuf));
//  417       }
//  418 
//  419       // 4. (V3.1) ´ň°üłÉ TLV Öˇ˛˘·˘ËÍĘýľÝ°üµ˝Đ­µ÷Ć÷
//  420       SerialApp_SendTLVData(payloadData, payloadLen);
//  421     }
//  422     
//  423     // 5. (V4.2 ĐŢŐý) ÖŘĆô 5 Ăë¶¨Ę±Ć÷
//  424     osal_start_timerEx(SerialApp_TaskID, SENSOR_READ_EVT, SENSOR_READ_PERIOD);
//  425 
//  426 #endif // !defined(ZDO_COORDINATOR)
//  427     
//  428     return ( events ^ SHT30_DATA_READY_EVT );
        MOV     A,R6
        XRL     A,#0x10
        LJMP    ??SerialApp_ProcessEvent_2 & 0xFFFF
//  429   }
//  430 
//  431   // --- (V4.3) Đ­µ÷Ć÷ĐÄĚřĘÂĽţ (Á´Â· B) ---
//  432   if ( events & HEARTBEAT_EVT )
??SerialApp_ProcessEvent_14:
        MOV     A,R6
        ANL     A,#0x8
        JZ      ??SerialApp_ProcessEvent_15
//  433   {
//  434 #if defined(ZDO_COORDINATOR)
//  435     // 1. ·˘ËÍ V3.1 ąć·¶µÄĐÄĚř°üµ˝ STM32 (ĘýľÝżÚ UART 0)
//  436     SendHeartbeat();
        MOV     DPL,?XSP + 0
        MOV     DPH,?XSP + 1
        MOV     A,#-0x56
        MOVX    @DPTR,A
        MOV     A,#0x1
        LCALL   ?XSTACK_DISP0_8
        CLR     A
        MOVX    @DPTR,A
        MOV     A,#0x2
        LCALL   ?XSTACK_DISP0_8
        CLR     A
        MOVX    @DPTR,A
        MOV     A,#0x3
        LCALL   ?XSTACK_DISP0_8
        CLR     A
        MOVX    @DPTR,A
        ; Setup parameters for call to function crc16_modbus
        MOV     R4,#0x3
        MOV     R5,A
        INC     A
        LCALL   ?XSTACK_DISP0_8
        MOV     R2,DPL
        MOV     R3,DPH
        LCALL   ??crc16_modbus?relay
        MOV     A,#0x4
        LCALL   ?XSTACK_DISP0_8
        MOV     A,R2
        MOVX    @DPTR,A
        MOV     A,#0x5
        LCALL   ?XSTACK_DISP0_8
        MOV     A,R3
        MOVX    @DPTR,A
        ; Setup parameters for call to function HalUARTWrite
        MOV     R4,#0x6
        MOV     R5,#0x0
        MOV     DPL,?XSP + 0
        MOV     DPH,?XSP + 1
        MOV     R2,DPL
        MOV     R3,DPH
        MOV     R1,#0x0
        LCALL   ??HalUARTWrite?relay
//  437     
//  438     // (V4.7) ŇĆłýËůÓĐµ÷ĘÔ´ňÓˇ
//  439     // HalUARTWrite(SERIAL_APP_PORT, (uint8*)"[Heartbeat] Sent to STM32 (UART1)\r\n", 35);
//  440     
//  441     // 2. ÖŘĐÂĆô¶Ż 5 Ăë¶¨Ę±Ć÷
//  442     osal_start_timerEx(SerialApp_TaskID, HEARTBEAT_EVT, 5000);
        ; Setup parameters for call to function osal_start_timerEx
        MOV     R4,#-0x78
        MOV     R5,#0x13
        MOV     R2,#0x8
        MOV     R3,#0x0
        MOV     DPTR,#SerialApp_TaskID
        MOVX    A,@DPTR
        MOV     R1,A
        LCALL   ??osal_start_timerEx?relay
//  443 #endif // ZDO_COORDINATOR
//  444     
//  445     return ( events ^ HEARTBEAT_EVT );
        MOV     A,R6
        XRL     A,#0x8
        MOV     R2,A
        MOV     A,R7
        SJMP    ??SerialApp_ProcessEvent_13
//  446   }
//  447 
//  448 
//  449   return ( 0 );  // ¶ŞĆúÎ´ÖŞĘÂĽţ
??SerialApp_ProcessEvent_15:
        MOV     R2,#0x0
        MOV     R3,#0x0
??SerialApp_ProcessEvent_3:
        MOV     A,#0x6
        LCALL   ?DEALLOC_XSTACK8
        CFI CFA_XSP16 add(XSP16, 12)
        MOV     R7,#0x4
        LJMP    ?BANKED_LEAVE_XDATA
        CFI EndBlock cfiBlock1
//  450 }
//  451 
//  452 /*********************************************************************
//  453  * @fn      SerialApp_SendTLVData
//  454  *
//  455  * @brief   (˝Úµă) V3.1 ¸¨ÖúşŻĘý: ´ň°ü TLV ˛˘·˘ËÍĘýľÝ
//  456  *
//  457  * @param   payloadData - Ö¸ĎňÔ­ĘĽ´«¸ĐĆ÷ĘýľÝ (ŔýČç 8 ×Ö˝Ú SHT30)
//  458  * @param   payloadLen  - Ô­ĘĽ´«¸ĐĆ÷ĘýľÝµÄł¤¶Č (ŔýČç 8)
//  459  *
//  460  * @return  ÎŢ
//  461  */
//  462 #if !defined(ZDO_COORDINATOR)
//  463 static void SerialApp_SendTLVData(uint8 *payloadData, uint8 payloadLen)
//  464 {
//  465   uint8 deviceType;
//  466   uint8 *tlvBuffer; // Ö¸Ďň TLV ÖˇµÄÖ¸Őë
//  467   uint8 tlvLen;
//  468   
//  469   deviceType = (uint8)Sensor_GetDeviceType();
//  470   tlvLen = payloadLen + 2;
//  471   
//  472   tlvBuffer = osal_mem_alloc(tlvLen);
//  473   if (tlvBuffer == NULL)
//  474   {
//  475     return; // ÄÚ´ć·ÖĹäĘ§°Ü
//  476   }
//  477   
//  478   tlvBuffer[0] = deviceType; // ÖˇT: Éč±¸ŔŕĐÍ
//  479   tlvBuffer[1] = payloadLen; // ÖˇL: ¸şÔŘł¤¶Č
//  480   osal_memcpy(&tlvBuffer[2], payloadData, payloadLen);
//  481   
//  482   AF_DataRequest(
//  483     &SerialApp_CoordAddr,       // Äż±ęµŘÖ· (Đ­µ÷Ć÷)
//  484     &SerialApp_epDesc,          // Ô´¶ËµăĂčĘö·ű
//  485     SENSOR_DATA_CLUSTER,        // (V3.1) Äż±ęĽŻČş ID
//  486     tlvLen,                     // ĘýľÝł¤¶Č (TLV ×Üł¤¶Č)
//  487     tlvBuffer,                  // ĘýľÝ»şłĺÇř (TLV Öˇ)
//  488     &SerialApp_TransID,         // ĘÂÎń ID (×ÔÔö)
//  489     AF_DISCV_ROUTE,             // ŃˇĎî: ×Ô¶Ż·˘ĎÖÂ·ÓÉ
//  490     AF_DEFAULT_RADIUS           // Ä¬ČĎĚřĘý
//  491   );
//  492   
//  493   osal_mem_free(tlvBuffer);
//  494 }
//  495 #endif // !defined(ZDO_COORDINATOR)
//  496 
//  497 
//  498 /*********************************************************************
//  499  * @fn      SerialApp_ProcessMSGCmd
//  500  *
//  501  * @brief   (Đ­µ÷Ć÷) V4.7 Zigbee ĎűĎ˘´¦ŔíĆ÷ (µĄżÚ×Ş·˘ÄŁĘ˝)ˇŁ
//  502  *
//  503  * @param   pkt - Ö¸ĎňĘŐµ˝µÄ Zigbee ĎűĎ˘°ü
//  504  *
//  505  * @return  ÎŢ
//  506  */
//  507 #if defined(ZDO_COORDINATOR)
//  508 static void SerialApp_ProcessMSGCmd( afIncomingMSGPacket_t *pkt )
//  509 {
//  510   uint16 srcAddr = pkt->srcAddr.addr.shortAddr;
//  511   uint8 *payload = pkt->cmd.Data;
//  512   uint8 payloadLen = pkt->cmd.DataLength;
//  513 
//  514   // (V4.7) 2. ˝«Ô­ĘĽ¶ţ˝řÖĆĘýľÝ×Ş·˘µ˝ ĘýľÝ¶ËżÚ (UART 0)
//  515   if ( (pkt->clusterId == SENSOR_DATA_CLUSTER) || 
//  516        (pkt->clusterId == SERIALAPP_OTA_CLUSTER) ) 
//  517   {
//  518       SendUplinkFrame(srcAddr, payload, payloadLen); // ·˘ËÍµ˝ UART 0 (V3.1 ąć·¶)
//  519   }
//  520 }
//  521 #endif // ZDO_COORDINATOR
//  522 
//  523 
//  524 // =================================================================
//  525 // --- (V4.7) Đ­µ÷Ć÷ Á´Â· B (V3.1 ąć·¶) ĘµĎÖşŻĘý (Č«˛ż×ß UART 0) ---
//  526 // =================================================================
//  527 #if defined(ZDO_COORDINATOR)
//  528 
//  529 /**
//  530  * @brief (V4.3) V3.1 ąć·¶: CRC-16/MODBUS ĽĆËă
//  531  * [cite: STM32-Zigbee»ěşĎÍ¨ĐĹąć·¶V3.1(OTA).md, section 3.6]
//  532  */

        RSEG BANKED_CODE:CODE:NOROOT(0)
//  533 static uint16 crc16_modbus(const uint8 *data, uint16 len) 
crc16_modbus:
        CFI Block cfiBlock2 Using cfiCommon0
        CFI Function crc16_modbus
        CODE
//  534 {
        MOV     A,#-0xa
        LCALL   ?BANKED_ENTER_XDATA
        CFI DPH0 load(1, XDATA, add(CFA_XSP16, literal(-1)))
        CFI DPL0 load(1, XDATA, add(CFA_XSP16, literal(-2)))
        CFI ?BRET_EXT load(1, XDATA, add(CFA_XSP16, literal(-3)))
        CFI ?RET_HIGH load(1, XDATA, add(CFA_XSP16, literal(-4)))
        CFI ?RET_LOW load(1, XDATA, add(CFA_XSP16, literal(-5)))
        CFI R7 load(1, XDATA, add(CFA_XSP16, literal(-6)))
        CFI V1 load(1, XDATA, add(CFA_XSP16, literal(-7)))
        CFI V0 load(1, XDATA, add(CFA_XSP16, literal(-8)))
        CFI VB load(1, XDATA, add(CFA_XSP16, literal(-9)))
        CFI R6 load(1, XDATA, add(CFA_XSP16, literal(-10)))
        CFI CFA_SP SP+0
        CFI CFA_XSP16 add(XSP16, 10)
        ; Saved register size: 10
        ; Auto size: 0
        MOV     A,R2
        MOV     R0,A
        MOV     A,R3
        MOV     R1,A
        MOV     A,R4
        MOV     R6,A
        MOV     A,R5
        MOV     R7,A
//  535     uint16 crc = 0xFFFF;
        MOV     R2,#-0x1
        MOV     R3,#-0x1
//  536     for (uint16 i = 0; i < len; i++) {
        MOV     ?V0 + 0,#0x0
        MOV     ?V0 + 1,#0x0
        SJMP    ??crc16_modbus_0
//  537         uint8 index = (uint8)(crc ^ data[i]);
//  538         crc = (crc >> 8) ^ crc16_table[index];
??crc16_modbus_1:
        MOV     A,R3
        MOV     R4,A
        MOV     A,R0
        ADD     A,?V0 + 0
        MOV     DPL,A
        MOV     A,R1
        ADDC    A,?V0 + 1
        MOV     DPH,A
        MOVX    A,@DPTR
        XRL     A,R2
        CLR     C
        RLC     A
        MOV     R2,A
        CLR     A
        RLC     A
        MOV     R3,A
        MOV     A,#crc16_table & 0xff
        ADD     A,R2
        MOV     DPL,A
        MOV     A,#(crc16_table >> 8) & 0xff
        ADDC    A,R3
        MOV     DPH,A
        MOVX    A,@DPTR
        XRL     A,R4
        MOV     R2,A
        INC     DPTR
        MOVX    A,@DPTR
        MOV     R3,A
//  539     }
        MOV     A,?V0 + 0
        ADD     A,#0x1
        MOV     ?V0 + 0,A
        MOV     A,?V0 + 1
        ADDC    A,#0x0
        MOV     ?V0 + 1,A
??crc16_modbus_0:
        CLR     C
        MOV     A,?V0 + 0
        SUBB    A,R6
        MOV     A,?V0 + 1
        SUBB    A,R7
        JC      ??crc16_modbus_1
//  540     return crc;
        MOV     R7,#0x2
        LJMP    ?BANKED_LEAVE_XDATA
        CFI EndBlock cfiBlock2
//  541 }
//  542 
//  543 /**
//  544  * @brief (V4.3) Ďň STM32 ·˘ËÍÉĎĐĐÖˇ (·â×° Á´Â· B)
//  545  * [cite: STM32-Zigbee»ěşĎÍ¨ĐĹąć·¶V3.1(OTA).md, section 4.2.1]
//  546  */

        RSEG BANKED_CODE:CODE:NOROOT(0)
//  547 static void SendUplinkFrame(uint16 srcAddr, uint8 *payload, uint8 payloadLen)
SendUplinkFrame:
        CFI Block cfiBlock3 Using cfiCommon0
        CFI Function SendUplinkFrame
        CODE
//  548 {
        FUNCALL SendUplinkFrame, osal_memcpy
        LOCFRAME ISTACK, 0, STACK
        LOCFRAME PSTACK, 0, STACK
        LOCFRAME XSTACK, 270, STACK
        LOCFRAME IOVERLAY, 0, STATIC
        LOCFRAME DOVERLAY, 0, STATIC
        ARGFRAME ISTACK, 0, STACK
        ARGFRAME PSTACK, 0, STACK
        ARGFRAME XSTACK, 270, STACK
        ARGFRAME IOVERLAY, 0, STATIC
        ARGFRAME DOVERLAY, 0, STATIC
        FUNCALL SendUplinkFrame, crc16_modbus
        LOCFRAME ISTACK, 0, STACK
        LOCFRAME PSTACK, 0, STACK
        LOCFRAME XSTACK, 267, STACK
        LOCFRAME IOVERLAY, 0, STATIC
        LOCFRAME DOVERLAY, 0, STATIC
        ARGFRAME ISTACK, 0, STACK
        ARGFRAME PSTACK, 0, STACK
        ARGFRAME XSTACK, 267, STACK
        ARGFRAME IOVERLAY, 0, STATIC
        ARGFRAME DOVERLAY, 0, STATIC
        FUNCALL SendUplinkFrame, HalUARTWrite
        LOCFRAME ISTACK, 0, STACK
        LOCFRAME PSTACK, 0, STACK
        LOCFRAME XSTACK, 267, STACK
        LOCFRAME IOVERLAY, 0, STATIC
        LOCFRAME DOVERLAY, 0, STATIC
        ARGFRAME ISTACK, 0, STACK
        ARGFRAME PSTACK, 0, STACK
        ARGFRAME XSTACK, 267, STACK
        ARGFRAME IOVERLAY, 0, STATIC
        ARGFRAME DOVERLAY, 0, STATIC
        MOV     A,#-0xb
        LCALL   ?BANKED_ENTER_XDATA
        CFI DPH0 load(1, XDATA, add(CFA_XSP16, literal(-1)))
        CFI DPL0 load(1, XDATA, add(CFA_XSP16, literal(-2)))
        CFI ?BRET_EXT load(1, XDATA, add(CFA_XSP16, literal(-3)))
        CFI ?RET_HIGH load(1, XDATA, add(CFA_XSP16, literal(-4)))
        CFI ?RET_LOW load(1, XDATA, add(CFA_XSP16, literal(-5)))
        CFI R7 load(1, XDATA, add(CFA_XSP16, literal(-6)))
        CFI V2 load(1, XDATA, add(CFA_XSP16, literal(-7)))
        CFI V1 load(1, XDATA, add(CFA_XSP16, literal(-8)))
        CFI V0 load(1, XDATA, add(CFA_XSP16, literal(-9)))
        CFI VB load(1, XDATA, add(CFA_XSP16, literal(-10)))
        CFI R6 load(1, XDATA, add(CFA_XSP16, literal(-11)))
        CFI CFA_SP SP+0
        CFI CFA_XSP16 add(XSP16, 11)
        ; Saved register size: 11
        ; Auto size: 256
        MOV     DPL,#0x0
        MOV     DPH,#-0x1
        LCALL   ?ADD_XSTACK_DISP0_16
        CFI CFA_XSP16 add(XSP16, 267)
        MOV     A,R1
        MOV     R6,A
//  549     // Öˇ»şłĺÇř: SOF(1) + SRC(2) + LEN(1) + Payload(N) + CRC(2)
//  550     uint8 frame[256];
//  551     uint16 crc;
//  552     uint8 frameLen;
//  553     
//  554     // 1. Ľě˛éł¤¶ČĘÇ·ńŇçłö (Payload ×î´ó 256-6=250 ×Ö˝Ú)
//  555     if (payloadLen > (256 - 6))
        CLR     C
        SUBB    A,#-0x5
        JNC     ??SendUplinkFrame_0
//  556     {
//  557       return; 
//  558     }
//  559 
//  560     // 2. ąąÔěÖˇÍ·
//  561     frame[0] = 0xAA; // SOF
        MOV     DPL,?XSP + 0
        MOV     A,#-0x56
        MOVX    @DPTR,A
//  562     frame[1] = (srcAddr >> 8) & 0xFF; // SRC_H
        MOV     A,#0x1
        LCALL   ?XSTACK_DISP0_8
        MOV     A,R3
        MOVX    @DPTR,A
//  563     frame[2] = srcAddr & 0xFF; // SRC_L
        MOV     A,#0x2
        LCALL   ?XSTACK_DISP0_8
        MOV     A,R2
        MOVX    @DPTR,A
//  564     frame[3] = payloadLen; // LEN
        MOV     A,#0x3
        LCALL   ?XSTACK_DISP0_8
        MOV     A,R1
        MOVX    @DPTR,A
//  565     
//  566     // 3. ż˝±´ Payload (ÍęŐűµÄ Á´Â· A TLV ˝áąą)
//  567     if (payloadLen > 0)
        JZ      ??SendUplinkFrame_1
//  568     {
//  569       osal_memcpy(&frame[4], payload, payloadLen);
        ; Setup parameters for call to function osal_memcpy
        MOV     ?V0 + 0,R4
        MOV     ?V0 + 1,R5
        MOV     ?V0 + 2,#0x0
        MOV     R0,#?V0 + 0
        LCALL   ?PUSH_XSTACK_I_THREE
        CFI CFA_XSP16 add(XSP16, 270)
        MOV     ?V0 + 0,R6
        MOV     R4,?V0 + 0
        MOV     R5,#0x0
        MOV     A,#0x7
        LCALL   ?XSTACK_DISP0_8
        MOV     R2,DPL
        MOV     R3,DPH
        LCALL   ??osal_memcpy?relay
        MOV     A,#0x3
        LCALL   ?DEALLOC_XSTACK8
        CFI CFA_XSP16 add(XSP16, 267)
//  570     }
//  571     
//  572     // 4. ĽĆËă CRC (´Ó SRC_H µ˝ Payload Ä©Î˛, ą˛ 3+N ×Ö˝Ú)
//  573     // [cite: STM32-Zigbee»ěşĎÍ¨ĐĹąć·¶V3.1(OTA).md, section 3.2]
//  574     crc = crc16_modbus(&frame[1], 3 + payloadLen);
??SendUplinkFrame_1:
        ; Setup parameters for call to function crc16_modbus
        MOV     A,R6
        ADD     A,#0x3
        MOV     R4,A
        CLR     A
        ADDC    A,#0x0
        MOV     R5,A
        MOV     A,#0x1
        LCALL   ?XSTACK_DISP0_8
        MOV     R2,DPL
        MOV     R3,DPH
        LCALL   ??crc16_modbus?relay
        MOV     ?V0 + 0,R2
        MOV     R0,?V0 + 0
//  575     
//  576     // 5. Ěîłä CRC
//  577     frameLen = 4 + payloadLen;
        MOV     A,#0x4
        ADD     A,R6
        MOV     R2,A
//  578     frame[frameLen++] = crc & 0xFF; // CRC_L
        LCALL   ?Subroutine0 & 0xFFFF
??CrossCallReturnLabel_0:
        MOV     A,R0
        MOVX    @DPTR,A
        INC     R2
//  579     frame[frameLen++] = (crc >> 8) & 0xFF; // CRC_H
        LCALL   ?Subroutine0 & 0xFFFF
??CrossCallReturnLabel_1:
        MOV     A,R3
        MOVX    @DPTR,A
//  580     
//  581     // 6. (V4.7) ąŘĽü: ·˘ËÍµ˝ÇĹ˝ÓĘýľÝ¶ËżÚ UART 0
//  582     HalUARTWrite(SERIAL_APP_PORT, frame, frameLen);
        ; Setup parameters for call to function HalUARTWrite
        MOV     A,#0x1
        ADD     A,R2
        MOV     R4,A
        MOV     R5,#0x0
        MOV     DPL,?XSP + 0
        MOV     DPH,?XSP + 1
        MOV     R2,DPL
        MOV     R3,DPH
        MOV     R1,#0x0
        LCALL   ??HalUARTWrite?relay
//  583 }
??SendUplinkFrame_0:
        MOV     DPL,#0x0
        MOV     DPH,#0x1
        LCALL   ?ADD_XSTACK_DISP0_16
        CFI CFA_XSP16 add(XSP16, 11)
        MOV     R7,#0x3
        LJMP    ?BANKED_LEAVE_XDATA
        CFI EndBlock cfiBlock3

        RSEG BANKED_CODE:CODE:NOROOT(0)
?Subroutine0:
        CFI Block cfiCond4 Using cfiCommon0
        CFI NoFunction
        CFI Conditional ??CrossCallReturnLabel_0
        CFI R6 load(1, XDATA, add(CFA_XSP16, literal(-11)))
        CFI VB load(1, XDATA, add(CFA_XSP16, literal(-10)))
        CFI V0 load(1, XDATA, add(CFA_XSP16, literal(-9)))
        CFI V1 load(1, XDATA, add(CFA_XSP16, literal(-8)))
        CFI V2 load(1, XDATA, add(CFA_XSP16, literal(-7)))
        CFI R7 load(1, XDATA, add(CFA_XSP16, literal(-6)))
        CFI ?RET_LOW load(1, XDATA, add(CFA_XSP16, literal(-5)))
        CFI ?RET_HIGH load(1, XDATA, add(CFA_XSP16, literal(-4)))
        CFI ?BRET_EXT load(1, XDATA, add(CFA_XSP16, literal(-3)))
        CFI DPL0 load(1, XDATA, add(CFA_XSP16, literal(-2)))
        CFI DPH0 load(1, XDATA, add(CFA_XSP16, literal(-1)))
        CFI CFA_SP SP+0
        CFI CFA_XSP16 add(XSP16, 267)
        CFI Block cfiCond5 Using cfiCommon0
        CFI (cfiCond5) NoFunction
        CFI (cfiCond5) Conditional ??CrossCallReturnLabel_1
        CFI (cfiCond5) R6 load(1, XDATA, add(CFA_XSP16, literal(-11)))
        CFI (cfiCond5) VB load(1, XDATA, add(CFA_XSP16, literal(-10)))
        CFI (cfiCond5) V0 load(1, XDATA, add(CFA_XSP16, literal(-9)))
        CFI (cfiCond5) V1 load(1, XDATA, add(CFA_XSP16, literal(-8)))
        CFI (cfiCond5) V2 load(1, XDATA, add(CFA_XSP16, literal(-7)))
        CFI (cfiCond5) R7 load(1, XDATA, add(CFA_XSP16, literal(-6)))
        CFI (cfiCond5) ?RET_LOW load(1, XDATA, add(CFA_XSP16, literal(-5)))
        CFI (cfiCond5) ?RET_HIGH load(1, XDATA, add(CFA_XSP16, literal(-4)))
        CFI (cfiCond5) ?BRET_EXT load(1, XDATA, add(CFA_XSP16, literal(-3)))
        CFI (cfiCond5) DPL0 load(1, XDATA, add(CFA_XSP16, literal(-2)))
        CFI (cfiCond5) DPH0 load(1, XDATA, add(CFA_XSP16, literal(-1)))
        CFI (cfiCond5) CFA_SP SP+0
        CFI (cfiCond5) CFA_XSP16 add(XSP16, 267)
        CFI Block cfiPicker6 Using cfiCommon1
        CFI (cfiPicker6) NoFunction
        CFI (cfiPicker6) Picker
        MOV     ?V0 + 0,R2
        MOV     DPL,?XSP + 0
        MOV     DPH,?XSP + 1
        MOV     A,DPL
        ADD     A,?V0 + 0
        MOV     DPL,A
        MOV     A,DPH
        ADDC    A,#0x0
        MOV     DPH,A
        RET
        CFI EndBlock cfiCond4
        CFI EndBlock cfiCond5
        CFI EndBlock cfiPicker6
//  584 
//  585 /**
//  586  * @brief (V4.3) Ďň STM32 ·˘ËÍĐÄĚřÖˇ (·â×° Á´Â· B)
//  587  * [cite: STM32-Zigbee»ěşĎÍ¨ĐĹąć·¶V3.1(OTA).md, section 4.2.3]
//  588  */
//  589 static void SendHeartbeat(void)
//  590 {
//  591     uint8 frame[6];
//  592     uint16 crc;
//  593     
//  594     frame[0] = 0xAA; // SOF
//  595     frame[1] = 0x00; // SRC_H = 0x00
//  596     frame[2] = 0x00; // SRC_L = 0x00 (Đ­µ÷Ć÷µŘÖ·)
//  597     frame[3] = 0x00; // LEN = 0 (ÎŢ Payload)
//  598     
//  599     // ĽĆËă CRC (ĽĆËă 3 ×Ö˝Ú: SRC_H, SRC_L, LEN)
//  600     // [cite: STM32-Zigbee»ěşĎÍ¨ĐĹąć·¶V3.1(OTA).md, section 3.4]
//  601     crc = crc16_modbus(&frame[1], 3);
//  602     frame[4] = crc & 0xFF;
//  603     frame[5] = (crc >> 8) & 0xFF;
//  604     
//  605     // (V4.7) ąŘĽü: ·˘ËÍµ˝ÇĹ˝ÓĘýľÝ¶ËżÚ UART 0
//  606     HalUARTWrite(SERIAL_APP_PORT, frame, 6);
//  607 }
//  608 
//  609 /**
//  610  * @brief (V4.7) UART ˝ÓĘŐ»Řµ÷şŻĘý (ŐĽÎ»·ű, ×¨ÓĂÓÚ UART 0)
//  611  * [cite: STM32-Zigbee»ěşĎÍ¨ĐĹąć·¶V3.1(OTA).md, section 4.2.2]
//  612  */

        RSEG BANKED_CODE:CODE:NOROOT(0)
//  613 static void SerialApp_UART_CB_BRIDGE(uint8 port, uint8 event)
SerialApp_UART_CB_BRIDGE:
        CFI Block cfiBlock7 Using cfiCommon0
        CFI Function SerialApp_UART_CB_BRIDGE
        CODE
//  614 {
        ; Saved register size: 0
        ; Auto size: 0
//  615   (void)port;
//  616   (void)event;
//  617   
//  618   // (V4.7) ŐĽÎ»·ű: 
//  619   // ´Ë´¦Ó¦ĘµĎÖ V3.1 ąć·¶ 5.2 ˝ÚÖĐµÄ UART ˝ÓĘŐ×´Ě¬»úˇŁ
//  620   // ×´Ě¬»úÓ¦Öđ×Ö˝Ú¶ÁČˇĘýľÝ: HalUARTRead(SERIAL_APP_PORT, ...)
//  621   // ˛˘ÔÚ˝ÓĘŐµ˝ÍęŐűÇŇ CRC ŐýČ·µÄÖˇĘ±Ł¬µ÷ÓĂ ParseDownlinkFrame()
//  622   
//  623   // ĘľŔý: (ÄúĐčŇŞĘµĎÖŇ»¸öŐćŐýµÄ×´Ě¬»úŔ´´úĚćŐâ¸ö)
//  624   /*
//  625   uint8 buf[128];
//  626   uint16 len = HalUARTRead(SERIAL_APP_PORT, buf, 128);
//  627   if (len > 0)
//  628   {
//  629      // (ŐĽÎ»·ű) ĽŮÉč buf ĘÇŇ»¸öÍęŐűµÄˇ˘CRC ŐýČ·µÄÖˇ
//  630      // ParseDownlinkFrame(buf, len);
//  631   }
//  632   */
//  633 }
        LJMP    ?BRET
        CFI EndBlock cfiBlock7

        RSEG XDATA_ID:CODE:NOROOT(0)
`?<Initializer for SerialApp_epDesc>`:
        DATA8
        DB 11
        DATA16
        DW SerialApp_TaskID
        DW SerialApp_SimpleDesc
        DATA8
        DB 0

        RSEG BANK_RELAYS:CODE:REORDER:NOROOT(0)
??SerialApp_Init?relay:
        LCALL   ?BDISPATCH
        DATA
        DC24    SerialApp_Init

        RSEG BANK_RELAYS:CODE:REORDER:NOROOT(0)
??SerialApp_ProcessEvent?relay:
        LCALL   ?BDISPATCH
        DATA
        DC24    SerialApp_ProcessEvent

        RSEG BANK_RELAYS:CODE:REORDER:NOROOT(0)
??crc16_modbus?relay:
        LCALL   ?BDISPATCH
        DATA
        DC24    crc16_modbus

        RSEG BANK_RELAYS:CODE:REORDER:NOROOT(0)
??SendUplinkFrame?relay:
        LCALL   ?BDISPATCH
        DATA
        DC24    SendUplinkFrame

        RSEG BANK_RELAYS:CODE:REORDER:NOROOT(0)
??SerialApp_UART_CB_BRIDGE?relay:
        LCALL   ?BDISPATCH
        DATA
        DC24    SerialApp_UART_CB_BRIDGE

        END
//  634 
//  635 /**
//  636  * @brief (V4.3) ˝âÎöŔ´×Ô STM32 µÄĎÂĐĐÖˇ (ŐĽÎ»·ű)
//  637  * [cite: STM32-Zigbee»ěşĎÍ¨ĐĹąć·¶V3.1(OTA).md, section 4.2.2]
//  638  */
//  639 static void ParseDownlinkFrame(uint8 *frameData, uint8 frameLen)
//  640 {
//  641   (void)frameData;
//  642   (void)frameLen;
//  643   
//  644   // (V4.3) ŐĽÎ»·ű:
//  645   // ´ËşŻĘýÓ¦ÓÉ SerialApp_UART_CB_BRIDGE ÔÚĐŁŃé CRC łÉą¦şóµ÷ÓĂ
//  646   
//  647   /*
//  648   uint16 dstAddr;
//  649   uint8 payloadLen;
//  650   uint8 *payload;
//  651   afAddrType_t dstAddrStruct;
//  652   uint16 clusterId;
//  653   
//  654   // 1. ĚáČˇÄż±ęµŘÖ· (DST_H, DST_L)
//  655   dstAddr = ((uint16)frameData[1] << 8) | frameData[2];
//  656   
//  657   // 2. ĚáČˇ Payload (Á´Â· A TLV)
//  658   payloadLen = frameData[3];
//  659   payload = &frameData[4];
//  660   
//  661   // 3. ąąÔě AF µŘÖ·˝áąą
//  662   dstAddrStruct.addrMode = afAddr16Bit;
//  663   dstAddrStruct.addr.shortAddr = dstAddr;
//  664   dstAddrStruct.endPoint = SERIALAPP_ENDPOINT;
//  665   
//  666   // 4. ŃˇÔń ClusterID (V3.1 ąć·¶: 0x0002 »ň 0x0003)
//  667   if (payload[0] >= 0xE0 && payload[0] <= 0xE3) {
//  668       clusterId = SERIALAPP_OTA_CLUSTER; // 0x0003
//  669   } else {
//  670       clusterId = CONTROL_CMD_CLUSTER; // 0x0002
//  671   }
//  672   
//  673   // 5. ·˘ËÍµ˝ Zigbee ˝Úµă
//  674   AF_DataRequest(&dstAddrStruct,
//  675       &SerialApp_epDesc,
//  676       clusterId,
//  677       payloadLen, payload, 
//  678       &SerialApp_TransID, // (V4.3) ×˘Ňâ: ĎÂĐĐŇ˛ĐčŇŞ TransID
//  679       AF_DISCV_ROUTE,
//  680       AF_DEFAULT_RADIUS);
//  681   */
//  682 }
//  683 
//  684 #endif // ZDO_COORDINATOR
//  685 
//  686 
//  687 /*********************************************************************
//  688 *********************************************************************/
//  689 
// 
// 760 bytes in segment BANKED_CODE
//  30 bytes in segment BANK_RELAYS
//   4 bytes in segment SFR_AN
//   6 bytes in segment XDATA_I
//   6 bytes in segment XDATA_ID
// 530 bytes in segment XDATA_ROM_C
//   2 bytes in segment XDATA_Z
// 
// 796 bytes of CODE  memory
// 530 bytes of CONST memory
//   0 bytes of DATA  memory (+ 4 bytes shared)
//   8 bytes of XDATA memory
//
//Errors: none
//Warnings: 1
