///////////////////////////////////////////////////////////////////////////////
//                                                                            /
// IAR C/C++ Compiler V8.10.3.10338/W32 for 8051        31/Oct/2025  09:56:54 /
// Copyright 2004-2011 IAR Systems AB.                                        /
//                                                                            /
//    Core               =  plain                                             /
//    Code model         =  banked                                            /
//    Data model         =  large                                             /
//    Calling convention =  xdata reentrant                                   /
//    Constant location  =  data_rom                                          /
//    Dptr setup         =  1,16                                              /
//    Source file        =  E:\Coding\6 zigbee\Projects\zstack\Utilities\Seri /
//                          alApp\Source\i2c_sht30.c                          /
//    Command line       =  -f "E:\Coding\6 zigbee\Projects\zstack\Utilities\ /
//                          SerialApp\CC2530DB\..\..\..\Tools\CC2530DB\f8wEnd /
//                          ev.cfg" (-DCPU32MHZ -DROOT=__near_func            /
//                          -DBLINK_LEDS) -f "E:\Coding\6                     /
//                          zigbee\Projects\zstack\Utilities\SerialApp\CC2530 /
//                          DB\..\..\..\Tools\CC2530DB\f8wConfig.cfg"         /
//                          (-DSECURE=0 -DZG_SECURE_DYNAMIC=0 -DREFLECTOR     /
//                          -DDEFAULT_CHANLIST=0x00000800                     /
//                          -DZDAPP_CONFIG_PAN_ID=0x1223                      /
//                          -DNWK_START_DELAY=100 -DEXTENDED_JOINING_RANDOM_M /
//                          ASK=0x007F -DBEACON_REQUEST_DELAY=100             /
//                          -DBEACON_REQ_DELAY_MASK=0x00FF                    /
//                          -DROUTE_EXPIRY_TIME=30 -DAPSC_ACK_WAIT_DURATION_P /
//                          OLLED=3000 -DNWK_INDIRECT_MSG_TIMEOUT=7           /
//                          -DMAX_RREQ_ENTRIES=8 -DAPSC_MAX_FRAME_RETRIES=3   /
//                          -DNWK_MAX_DATA_RETRIES=2                          /
//                          -DMAX_POLL_FAILURE_RETRIES=2 -DMAX_BCAST=9        /
//                          -DAPS_MAX_GROUPS=16 -DMAX_RTG_ENTRIES=40          /
//                          -DNWK_MAX_BINDING_ENTRIES=4                       /
//                          -DMAX_BINDING_CLUSTER_IDS=4                       /
//                          "-DDEFAULT_KEY={0x01, 0x03, 0x05, 0x07, 0x09,     /
//                          0x0B, 0x0D, 0x0F, 0x00, 0x02, 0x04, 0x06, 0x08,   /
//                          0x0A, 0x0C, 0x0D}" -DMAC_MAX_FRAME_SIZE=116       /
//                          "-DCONST=const __code" -DGENERIC=__generic        /
//                          -DRFD_RCVC_ALWAYS_ON=FALSE -DPOLL_RATE=1000       /
//                          -DQUEUED_POLL_RATE=100 -DRESPONSE_POLL_RATE=100)  /
//                          -DREJOIN_POLL_RATE=440 "E:\Coding\6               /
//                          zigbee\Projects\zstack\Utilities\SerialApp\Source /
//                          \i2c_sht30.c" -D ZIGBEEPRO -D ZDO_ENDDEVICE -D    /
//                          HAL_UART=TRUE -D HAL_ADC=TRUE -D                  /
//                          SERIAL_APP_PORT=0 -D LCD_SUPPORTED -D             /
//                          ACTIVE_SENSOR_TYPE=DEVICE_TYPE_MQ2 -lC            /
//                          "E:\Coding\6 zigbee\Projects\zstack\Utilities\Ser /
//                          ialApp\CC2530DB\EndDeviceEB-Pro\List\" -lA        /
//                          "E:\Coding\6 zigbee\Projects\zstack\Utilities\Ser /
//                          ialApp\CC2530DB\EndDeviceEB-Pro\List\"            /
//                          --diag_suppress Pe001,Pa010,Pe069 -o              /
//                          "E:\Coding\6 zigbee\Projects\zstack\Utilities\Ser /
//                          ialApp\CC2530DB\EndDeviceEB-Pro\Obj\" -e --debug  /
//                          --core=plain --dptr=16,1 --data_model=large       /
//                          --code_model=banked --calling_convention=xdata_re /
//                          entrant --place_constants=data_rom                /
//                          --nr_virtual_regs 8 -I "E:\Coding\6               /
//                          zigbee\Projects\zstack\Utilities\SerialApp\CC2530 /
//                          DB\" -I "E:\Coding\6 zigbee\Projects\zstack\Utili /
//                          ties\SerialApp\CC2530DB\..\SOURCE\" -I            /
//                          "E:\Coding\6 zigbee\Projects\zstack\Utilities\Ser /
//                          ialApp\CC2530DB\..\..\..\ZMAIN\TI2530DB\" -I      /
//                          "E:\Coding\6 zigbee\Projects\zstack\Utilities\Ser /
//                          ialApp\CC2530DB\..\..\..\..\..\COMPONENTS\MT\"    /
//                          -I "E:\Coding\6 zigbee\Projects\zstack\Utilities\ /
//                          SerialApp\CC2530DB\..\..\..\..\..\COMPONENTS\HAL\ /
//                          INCLUDE\" -I "E:\Coding\6                         /
//                          zigbee\Projects\zstack\Utilities\SerialApp\CC2530 /
//                          DB\..\..\..\..\..\COMPONENTS\HAL\TARGET\CC2530EB\ /
//                          " -I "E:\Coding\6 zigbee\Projects\zstack\Utilitie /
//                          s\SerialApp\CC2530DB\..\..\..\..\..\COMPONENTS\OS /
//                          AL\MCU\CCSOC\" -I "E:\Coding\6                    /
//                          zigbee\Projects\zstack\Utilities\SerialApp\CC2530 /
//                          DB\..\..\..\..\..\COMPONENTS\OSAL\INCLUDE\" -I    /
//                          "E:\Coding\6 zigbee\Projects\zstack\Utilities\Ser /
//                          ialApp\CC2530DB\..\..\..\..\..\COMPONENTS\STACK\A /
//                          F\" -I "E:\Coding\6 zigbee\Projects\zstack\Utilit /
//                          ies\SerialApp\CC2530DB\..\..\..\..\..\COMPONENTS\ /
//                          STACK\NWK\" -I "E:\Coding\6                       /
//                          zigbee\Projects\zstack\Utilities\SerialApp\CC2530 /
//                          DB\..\..\..\..\..\COMPONENTS\STACK\SEC\" -I       /
//                          "E:\Coding\6 zigbee\Projects\zstack\Utilities\Ser /
//                          ialApp\CC2530DB\..\..\..\..\..\COMPONENTS\STACK\S /
//                          API\" -I "E:\Coding\6 zigbee\Projects\zstack\Util /
//                          ities\SerialApp\CC2530DB\..\..\..\..\..\COMPONENT /
//                          S\STACK\SYS\" -I "E:\Coding\6                     /
//                          zigbee\Projects\zstack\Utilities\SerialApp\CC2530 /
//                          DB\..\..\..\..\..\COMPONENTS\STACK\ZDO\" -I       /
//                          "E:\Coding\6 zigbee\Projects\zstack\Utilities\Ser /
//                          ialApp\CC2530DB\..\..\..\..\..\COMPONENTS\ZMAC\F8 /
//                          W\" -I "E:\Coding\6 zigbee\Projects\zstack\Utilit /
//                          ies\SerialApp\CC2530DB\..\..\..\..\..\COMPONENTS\ /
//                          ZMAC\" -I "E:\Coding\6 zigbee\Projects\zstack\Uti /
//                          lities\SerialApp\CC2530DB\..\..\..\..\..\COMPONEN /
//                          TS\SERVICES\SADDR\" -I "E:\Coding\6               /
//                          zigbee\Projects\zstack\Utilities\SerialApp\CC2530 /
//                          DB\..\..\..\..\..\COMPONENTS\SERVICES\SDATA\" -I  /
//                          "E:\Coding\6 zigbee\Projects\zstack\Utilities\Ser /
//                          ialApp\CC2530DB\..\..\..\..\..\COMPONENTS\MAC\INC /
//                          LUDE\" -I "E:\Coding\6 zigbee\Projects\zstack\Uti /
//                          lities\SerialApp\CC2530DB\..\..\..\..\..\COMPONEN /
//                          TS\MAC\HIGH_LEVEL\" -I "E:\Coding\6               /
//                          zigbee\Projects\zstack\Utilities\SerialApp\CC2530 /
//                          DB\..\..\..\..\..\COMPONENTS\MAC\LOW_LEVEL\srf04\ /
//                          " -I "E:\Coding\6 zigbee\Projects\zstack\Utilitie /
//                          s\SerialApp\CC2530DB\..\..\..\..\..\COMPONENTS\MA /
//                          C\LOW_LEVEL\srf04\SINGLE_CHIP\" -Ohz              /
//                          --require_prototypes                              /
//    List file          =  E:\Coding\6 zigbee\Projects\zstack\Utilities\Seri /
//                          alApp\CC2530DB\EndDeviceEB-Pro\List\i2c_sht30.s51 /
//                                                                            /
//                                                                            /
///////////////////////////////////////////////////////////////////////////////

        NAME i2c_sht30

        RTMODEL "__SystemLibrary", "CLib"
        RTMODEL "__calling_convention", "xdata_reentrant"
        RTMODEL "__code_model", "banked"
        RTMODEL "__core", "plain"
        RTMODEL "__data_model", "large"
        RTMODEL "__dptr_size", "16"
        RTMODEL "__extended_stack", "disabled"
        RTMODEL "__location_for_constants", "data"
        RTMODEL "__number_of_dptrs", "1"
        RTMODEL "__rt_version", "1"

        RSEG DOVERLAY:DATA:NOROOT(0)
        RSEG IOVERLAY:IDATA:NOROOT(0)
        RSEG ISTACK:IDATA:NOROOT(0)
        RSEG PSTACK:XDATA:NOROOT(0)
        RSEG XSTACK:XDATA:NOROOT(0)

        EXTERN ?ALLOC_XSTACK8
        EXTERN ?BANKED_ENTER_XDATA
        EXTERN ?BANKED_LEAVE_XDATA
        EXTERN ?BDISPATCH
        EXTERN ?BRET
        EXTERN ?DEALLOC_XSTACK8
        EXTERN ?FLT_ADD
        EXTERN ?FLT_DIV
        EXTERN ?FLT_MUL
        EXTERN ?L_MOV_TO_X
        EXTERN ?L_MOV_X
        EXTERN ?PUSH_XSTACK_I_THREE
        EXTERN ?UL_TO_FLT
        EXTERN ?V0
        EXTERN ?XSP
        EXTERN ?XSTACK_DISP0_8
        EXTERN __INIT_XDATA_Z

        PUBLIC ??i2c_sht30_Init?relay
        FUNCTION ??i2c_sht30_Init?relay,0203H
        PUBLIC ??i2c_sht30_ReadData?relay
        FUNCTION ??i2c_sht30_ReadData?relay,0203H
        PUBLIC ??i2c_sht30_StartMeasurement?relay
        FUNCTION ??i2c_sht30_StartMeasurement?relay,0203H
        PUBWEAK __Constant_42c80000
        PUBWEAK __Constant_432f0000
        PUBWEAK __Constant_477fff00
        PUBWEAK __Constant_c2340000
        PUBLIC i2c_sht30_Init
        FUNCTION i2c_sht30_Init,021203H
        ARGFRAME XSTACK, 0, STACK
        LOCFRAME XSTACK, 9, STACK
        PUBLIC i2c_sht30_ReadData
        FUNCTION i2c_sht30_ReadData,021203H
        ARGFRAME XSTACK, 0, STACK
        LOCFRAME ISTACK, 1, STACK
        LOCFRAME XSTACK, 35, STACK
        PUBLIC i2c_sht30_StartMeasurement
        FUNCTION i2c_sht30_StartMeasurement,021203H
        ARGFRAME XSTACK, 0, STACK
        LOCFRAME ISTACK, 2, STACK
        
        CFI Names cfiNames0
        CFI StackFrame CFA_SP SP IDATA
        CFI StackFrame CFA_PSP16 PSP16 XDATA
        CFI StackFrame CFA_XSP16 XSP16 XDATA
        CFI StaticOverlayFrame CFA_IOVERLAY IOVERLAY
        CFI StaticOverlayFrame CFA_DOVERLAY DOVERLAY
        CFI Resource `PSW.CY`:1, `B.BR0`:1, `B.BR1`:1, `B.BR2`:1, `B.BR3`:1
        CFI Resource `B.BR4`:1, `B.BR5`:1, `B.BR6`:1, `B.BR7`:1, `VB.BR8`:1
        CFI Resource `VB.BR9`:1, `VB.BR10`:1, `VB.BR11`:1, `VB.BR12`:1
        CFI Resource `VB.BR13`:1, `VB.BR14`:1, `VB.BR15`:1, VB:8, B:8, A:8
        CFI Resource PSW:8, DPL0:8, DPH0:8, R0:8, R1:8, R2:8, R3:8, R4:8, R5:8
        CFI Resource R6:8, R7:8, V0:8, V1:8, V2:8, V3:8, V4:8, V5:8, V6:8, V7:8
        CFI Resource SP:8, PSPH:8, PSPL:8, PSP16:16, XSPH:8, XSPL:8, XSP16:16
        CFI VirtualResource ?RET:24
        CFI Resource ?BRET_EXT:8
        CFI VirtualResource ?RET_HIGH:8, ?RET_LOW:8
        CFI ResourceParts PSP16 PSPH, PSPL
        CFI ResourceParts XSP16 XSPH, XSPL
        CFI ResourceParts ?RET ?BRET_EXT, ?RET_HIGH, ?RET_LOW
        CFI EndNames cfiNames0
        
        CFI Common cfiCommon0 Using cfiNames0
        CFI CodeAlign 1
        CFI DataAlign -1
        CFI ReturnAddress ?RET CODE
        CFI CFA_DOVERLAY Used
        CFI CFA_IOVERLAY Used
        CFI CFA_SP SP+-3
        CFI CFA_PSP16 PSP16+0
        CFI CFA_XSP16 XSP16+0
        CFI `PSW.CY` SameValue
        CFI `B.BR0` SameValue
        CFI `B.BR1` SameValue
        CFI `B.BR2` SameValue
        CFI `B.BR3` SameValue
        CFI `B.BR4` SameValue
        CFI `B.BR5` SameValue
        CFI `B.BR6` SameValue
        CFI `B.BR7` SameValue
        CFI `VB.BR8` SameValue
        CFI `VB.BR9` SameValue
        CFI `VB.BR10` SameValue
        CFI `VB.BR11` SameValue
        CFI `VB.BR12` SameValue
        CFI `VB.BR13` SameValue
        CFI `VB.BR14` SameValue
        CFI `VB.BR15` SameValue
        CFI VB SameValue
        CFI B Undefined
        CFI A Undefined
        CFI PSW SameValue
        CFI DPL0 SameValue
        CFI DPH0 SameValue
        CFI R0 Undefined
        CFI R1 Undefined
        CFI R2 Undefined
        CFI R3 Undefined
        CFI R4 Undefined
        CFI R5 Undefined
        CFI R6 SameValue
        CFI R7 SameValue
        CFI V0 SameValue
        CFI V1 SameValue
        CFI V2 SameValue
        CFI V3 SameValue
        CFI V4 SameValue
        CFI V5 SameValue
        CFI V6 SameValue
        CFI V7 SameValue
        CFI PSPH Undefined
        CFI PSPL Undefined
        CFI XSPH Undefined
        CFI XSPL Undefined
        CFI ?RET Concat
        CFI ?BRET_EXT Frame(CFA_SP, 3)
        CFI ?RET_HIGH Frame(CFA_SP, 2)
        CFI ?RET_LOW Frame(CFA_SP, 1)
        CFI EndCommon cfiCommon0
        
        
        CFI Common cfiCommon1 Using cfiNames0
        CFI CodeAlign 1
        CFI DataAlign -1
        CFI ReturnAddress ?RET CODE
        CFI CFA_DOVERLAY Used
        CFI CFA_IOVERLAY Used
        CFI CFA_SP SP+-2
        CFI CFA_PSP16 PSP16+0
        CFI CFA_XSP16 XSP16+0
        CFI `PSW.CY` SameValue
        CFI `B.BR0` SameValue
        CFI `B.BR1` SameValue
        CFI `B.BR2` SameValue
        CFI `B.BR3` SameValue
        CFI `B.BR4` SameValue
        CFI `B.BR5` SameValue
        CFI `B.BR6` SameValue
        CFI `B.BR7` SameValue
        CFI `VB.BR8` SameValue
        CFI `VB.BR9` SameValue
        CFI `VB.BR10` SameValue
        CFI `VB.BR11` SameValue
        CFI `VB.BR12` SameValue
        CFI `VB.BR13` SameValue
        CFI `VB.BR14` SameValue
        CFI `VB.BR15` SameValue
        CFI VB SameValue
        CFI B SameValue
        CFI A SameValue
        CFI PSW SameValue
        CFI DPL0 SameValue
        CFI DPH0 SameValue
        CFI R0 SameValue
        CFI R1 SameValue
        CFI R2 SameValue
        CFI R3 SameValue
        CFI R4 SameValue
        CFI R5 SameValue
        CFI R6 SameValue
        CFI R7 SameValue
        CFI V0 SameValue
        CFI V1 SameValue
        CFI V2 SameValue
        CFI V3 SameValue
        CFI V4 SameValue
        CFI V5 SameValue
        CFI V6 SameValue
        CFI V7 SameValue
        CFI PSPH Undefined
        CFI PSPL Undefined
        CFI XSPH Undefined
        CFI XSPL Undefined
        CFI ?RET Concat
        CFI ?BRET_EXT SameValue
        CFI ?RET_HIGH Frame(CFA_SP, 2)
        CFI ?RET_LOW Frame(CFA_SP, 1)
        CFI EndCommon cfiCommon1
        
bsp_I2C_Init        SYMBOL "bsp_I2C_Init"
bsp_I2C_Start       SYMBOL "bsp_I2C_Start"
bsp_I2C_SendByte    SYMBOL "bsp_I2C_SendByte"
bsp_I2C_GetAck      SYMBOL "bsp_I2C_GetAck"
bsp_I2C_Stop        SYMBOL "bsp_I2C_Stop"
osal_start_timerEx  SYMBOL "osal_start_timerEx"
bsp_I2C_ReadByte    SYMBOL "bsp_I2C_ReadByte"
bsp_I2C_SendAck     SYMBOL "bsp_I2C_SendAck"
osal_memcpy         SYMBOL "osal_memcpy"
??bsp_I2C_GetAck?relay SYMBOL "?relay", bsp_I2C_GetAck
??bsp_I2C_Init?relay SYMBOL "?relay", bsp_I2C_Init
??bsp_I2C_ReadByte?relay SYMBOL "?relay", bsp_I2C_ReadByte
??bsp_I2C_SendAck?relay SYMBOL "?relay", bsp_I2C_SendAck
??bsp_I2C_SendByte?relay SYMBOL "?relay", bsp_I2C_SendByte
??bsp_I2C_Start?relay SYMBOL "?relay", bsp_I2C_Start
??bsp_I2C_Stop?relay SYMBOL "?relay", bsp_I2C_Stop
??osal_memcpy?relay SYMBOL "?relay", osal_memcpy
??osal_start_timerEx?relay SYMBOL "?relay", osal_start_timerEx
i2c_sht30_Init      SYMBOL "i2c_sht30_Init"
??i2c_sht30_Init?relay SYMBOL "?relay", i2c_sht30_Init
i2c_sht30_ReadData  SYMBOL "i2c_sht30_ReadData"
??i2c_sht30_ReadData?relay SYMBOL "?relay", i2c_sht30_ReadData
i2c_sht30_StartMeasurement SYMBOL "i2c_sht30_StartMeasurement"
??i2c_sht30_StartMeasurement?relay SYMBOL "?relay", i2c_sht30_StartMeasurement

        EXTERN bsp_I2C_Init
        FUNCTION bsp_I2C_Init,0202H
        ARGFRAME ISTACK, 0, STACK
        ARGFRAME PSTACK, 0, STACK
        ARGFRAME XSTACK, 9, STACK
        ARGFRAME IOVERLAY, 0, STATIC
        ARGFRAME DOVERLAY, 0, STATIC
        EXTERN bsp_I2C_Start
        FUNCTION bsp_I2C_Start,0202H
        ARGFRAME ISTACK, 2, STACK
        ARGFRAME PSTACK, 0, STACK
        ARGFRAME XSTACK, 32, STACK
        ARGFRAME IOVERLAY, 0, STATIC
        ARGFRAME DOVERLAY, 0, STATIC
        EXTERN bsp_I2C_SendByte
        FUNCTION bsp_I2C_SendByte,0202H
        ARGFRAME ISTACK, 2, STACK
        ARGFRAME PSTACK, 0, STACK
        ARGFRAME XSTACK, 32, STACK
        ARGFRAME IOVERLAY, 0, STATIC
        ARGFRAME DOVERLAY, 0, STATIC
        EXTERN bsp_I2C_GetAck
        FUNCTION bsp_I2C_GetAck,0202H
        ARGFRAME ISTACK, 2, STACK
        ARGFRAME PSTACK, 0, STACK
        ARGFRAME XSTACK, 32, STACK
        ARGFRAME IOVERLAY, 0, STATIC
        ARGFRAME DOVERLAY, 0, STATIC
        EXTERN bsp_I2C_Stop
        FUNCTION bsp_I2C_Stop,0202H
        ARGFRAME ISTACK, 2, STACK
        ARGFRAME PSTACK, 0, STACK
        ARGFRAME XSTACK, 32, STACK
        ARGFRAME IOVERLAY, 0, STATIC
        ARGFRAME DOVERLAY, 0, STATIC
        EXTERN osal_start_timerEx
        FUNCTION osal_start_timerEx,0202H
        ARGFRAME ISTACK, 2, STACK
        ARGFRAME PSTACK, 0, STACK
        ARGFRAME XSTACK, 0, STACK
        ARGFRAME IOVERLAY, 0, STATIC
        ARGFRAME DOVERLAY, 0, STATIC
        EXTERN bsp_I2C_ReadByte
        FUNCTION bsp_I2C_ReadByte,0202H
        ARGFRAME ISTACK, 0, STACK
        ARGFRAME PSTACK, 0, STACK
        ARGFRAME XSTACK, 32, STACK
        ARGFRAME IOVERLAY, 0, STATIC
        ARGFRAME DOVERLAY, 0, STATIC
        EXTERN bsp_I2C_SendAck
        FUNCTION bsp_I2C_SendAck,0202H
        ARGFRAME ISTACK, 0, STACK
        ARGFRAME PSTACK, 0, STACK
        ARGFRAME XSTACK, 32, STACK
        ARGFRAME IOVERLAY, 0, STATIC
        ARGFRAME DOVERLAY, 0, STATIC
        EXTERN osal_memcpy
        FUNCTION osal_memcpy,0202H
        ARGFRAME ISTACK, 0, STACK
        ARGFRAME PSTACK, 0, STACK
        ARGFRAME XSTACK, 35, STACK
        ARGFRAME IOVERLAY, 0, STATIC
        ARGFRAME DOVERLAY, 0, STATIC
        EXTERN ??bsp_I2C_GetAck?relay
        FUNCTION ??bsp_I2C_GetAck?relay,00H
        EXTERN ??bsp_I2C_Init?relay
        FUNCTION ??bsp_I2C_Init?relay,00H
        EXTERN ??bsp_I2C_ReadByte?relay
        FUNCTION ??bsp_I2C_ReadByte?relay,00H
        EXTERN ??bsp_I2C_SendAck?relay
        FUNCTION ??bsp_I2C_SendAck?relay,00H
        EXTERN ??bsp_I2C_SendByte?relay
        FUNCTION ??bsp_I2C_SendByte?relay,00H
        EXTERN ??bsp_I2C_Start?relay
        FUNCTION ??bsp_I2C_Start?relay,00H
        EXTERN ??bsp_I2C_Stop?relay
        FUNCTION ??bsp_I2C_Stop?relay,00H
        EXTERN ??osal_memcpy?relay
        FUNCTION ??osal_memcpy?relay,00H
        EXTERN ??osal_start_timerEx?relay
        FUNCTION ??osal_start_timerEx?relay,00H

// E:\Coding\6 zigbee\Projects\zstack\Utilities\SerialApp\Source\i2c_sht30.c
//    1 /**************************************************************************************************
//    2   Filename:       i2c_sht30.c
//    3   Revised:        $Date: 2025-10-30 $
//    4 
//    5   Description:    SHT30 ÎÂĘŞ¶Č´«¸ĐĆ÷ÄŁżéÇý¶Ż ĘµĎÖÎÄĽţˇŁ
//    6                   (V3.2 °ć: Ö§łÖ·Ç×čČű OSAL ¶¨Ę±Ć÷)
//    7 **************************************************************************************************/
//    8 
//    9 /*********************************************************************
//   10  * INCLUDES
//   11  */
//   12 #include "i2c_sht30.h"
//   13 #include "bsp_i2c.h"
//   14 #include "OSAL.h"
//   15 #include "OSAL_Memory.h"
//   16 #include "OSAL_Timers.h" // (V3.2) ±ŘĐë°üş¬ OSAL ¶¨Ę±Ć÷
//   17 #include "SerialApp.h"   // (V3.2) ĐčŇŞ SHT30_DATA_READY_EVT ĘÂĽţ¶¨Ňĺ
//   18 
//   19 /*********************************************************************
//   20  * CONSTANTS
//   21  */
//   22 
//   23 // SHT30 I2C µŘÖ· (7Î»)
//   24 #define SHT30_ADDR 0x44
//   25 
//   26 // SHT30 ĂüÁî: µĄ´Î˛âÁż, ¸ßľ«¶Č, Ę±ÖÓŔ­Éě˝űÓĂ
//   27 #define SHT30_CMD_MEAS_HIGH 0x2C06
//   28 
//   29 // (V3.2) SHT30 ˛âÁżËůĐčµÄĘ±Ľä (¸ůľÝÄúµÄŇŞÇó, ÉčÖĂÎŞ 50ms)
//   30 #define SHT30_MEAS_WAIT_MS 50
//   31 
//   32 /*********************************************************************
//   33  * LOCAL VARIABLES
//   34  */

        RSEG XDATA_Z:XDATA:NOROOT(0)
        DATA8
//   35 static uint8 sht30_TaskID; // (V3.2) ±Ł´ćÓ¦ÓĂ˛ăČÎÎń ID
sht30_TaskID:
        DS 1
        REQUIRE __INIT_XDATA_Z
//   36 
//   37 /*********************************************************************
//   38  * LOCAL FUNCTIONS
//   39  */
//   40 
//   41 /**
//   42  * @brief   Ďň SHT30 Đ´ČëŇ»¸ö 16 Î»ĂüÁîˇŁ
//   43  * @param   cmd - 16 Î»ĂüÁî
//   44  * @return  1=łÉą¦, 0=Ę§°Ü (NACK)
//   45  */
//   46 static uint8 SHT30_WriteCmd(uint16 cmd)
//   47 {
//   48     bsp_I2C_Start();
//   49     
//   50     // 1. ·˘ËÍµŘÖ· + Đ´(0)
//   51     bsp_I2C_SendByte(SHT30_ADDR << 1 | 0);
//   52     if(bsp_I2C_GetAck())
//   53     {
//   54         bsp_I2C_Stop();
//   55         return 0; // ÎŢÓ¦´đ
//   56     }
//   57     
//   58     // 2. ·˘ËÍĂüÁî¸ß×Ö˝Ú
//   59     bsp_I2C_SendByte(cmd >> 8);
//   60     if(bsp_I2C_GetAck())
//   61     {
//   62         bsp_I2C_Stop();
//   63         return 0; // ÎŢÓ¦´đ
//   64     }
//   65     
//   66     // 3. ·˘ËÍĂüÁîµÍ×Ö˝Ú
//   67     bsp_I2C_SendByte(cmd & 0xFF);
//   68     if(bsp_I2C_GetAck())
//   69     {
//   70         bsp_I2C_Stop();
//   71         return 0; // ÎŢÓ¦´đ
//   72     }
//   73     
//   74     bsp_I2C_Stop();
//   75     return 1;
//   76 }
//   77 
//   78 /*********************************************************************
//   79  * PUBLIC FUNCTIONS
//   80  */
//   81 
//   82 /**
//   83  * @brief   łőĘĽ»Ż SHT30 ´«¸ĐĆ÷ˇŁ
//   84  * @param   task_id - OSAL ČÎÎń ID, ÓĂÓÚ·˘ËÍĘÂĽţˇŁ
//   85  */

        RSEG BANKED_CODE:CODE:NOROOT(0)
//   86 void i2c_sht30_Init(uint8 task_id)
i2c_sht30_Init:
        CFI Block cfiBlock0 Using cfiCommon0
        CFI Function i2c_sht30_Init
        CODE
//   87 {
        FUNCALL i2c_sht30_Init, bsp_I2C_Init
        LOCFRAME ISTACK, 0, STACK
        LOCFRAME PSTACK, 0, STACK
        LOCFRAME XSTACK, 9, STACK
        LOCFRAME IOVERLAY, 0, STATIC
        LOCFRAME DOVERLAY, 0, STATIC
        ARGFRAME ISTACK, 0, STACK
        ARGFRAME PSTACK, 0, STACK
        ARGFRAME XSTACK, 9, STACK
        ARGFRAME IOVERLAY, 0, STATIC
        ARGFRAME DOVERLAY, 0, STATIC
        MOV     A,#-0x9
        LCALL   ?BANKED_ENTER_XDATA
        CFI DPH0 load(1, XDATA, add(CFA_XSP16, literal(-1)))
        CFI DPL0 load(1, XDATA, add(CFA_XSP16, literal(-2)))
        CFI ?BRET_EXT load(1, XDATA, add(CFA_XSP16, literal(-3)))
        CFI ?RET_HIGH load(1, XDATA, add(CFA_XSP16, literal(-4)))
        CFI ?RET_LOW load(1, XDATA, add(CFA_XSP16, literal(-5)))
        CFI R7 load(1, XDATA, add(CFA_XSP16, literal(-6)))
        CFI V0 load(1, XDATA, add(CFA_XSP16, literal(-7)))
        CFI VB load(1, XDATA, add(CFA_XSP16, literal(-8)))
        CFI R6 load(1, XDATA, add(CFA_XSP16, literal(-9)))
        CFI CFA_SP SP+0
        CFI CFA_XSP16 add(XSP16, 9)
        ; Saved register size: 9
        ; Auto size: 0
        MOV     A,R1
//   88     // (V3.2) ±Ł´ć Task ID
//   89     sht30_TaskID = task_id;
        MOV     DPTR,#sht30_TaskID
        MOVX    @DPTR,A
//   90     
//   91     // łőĘĽ»Ż I2C ×ÜĎßŇý˝Ĺ (P0.5, P0.6)
//   92     bsp_I2C_Init();
        ; Setup parameters for call to function bsp_I2C_Init
        LCALL   ??bsp_I2C_Init?relay
//   93     
//   94     // (żÉŃˇ) żÉŇÔÔÚ´Ë·˘ËÍŇ»¸ö SHT30 Čí¸´Î»ĂüÁî
//   95     // SHT30_WriteCmd(0x30A2);
//   96 }
        MOV     R7,#0x1
        LJMP    ?BANKED_LEAVE_XDATA
        CFI EndBlock cfiBlock0
//   97 
//   98 /**
//   99  * @brief   (V3.2) Ćô¶ŻŇ»´Î SHT30 ˛âÁż (·Ç×čČű)ˇŁ
//  100  * @return  1=łÉą¦Ćô¶Ż, 0=I2CĂüÁî·˘ËÍĘ§°Ü
//  101  */

        RSEG BANKED_CODE:CODE:NOROOT(0)
//  102 uint8 i2c_sht30_StartMeasurement(void)
i2c_sht30_StartMeasurement:
        CFI Block cfiBlock1 Using cfiCommon0
        CFI Function i2c_sht30_StartMeasurement
        CODE
//  103 {
        FUNCALL i2c_sht30_StartMeasurement, bsp_I2C_Start
        LOCFRAME ISTACK, 2, STACK
        LOCFRAME PSTACK, 0, STACK
        LOCFRAME XSTACK, 0, STACK
        LOCFRAME IOVERLAY, 0, STATIC
        LOCFRAME DOVERLAY, 0, STATIC
        ARGFRAME ISTACK, 2, STACK
        ARGFRAME PSTACK, 0, STACK
        ARGFRAME XSTACK, 0, STACK
        ARGFRAME IOVERLAY, 0, STATIC
        ARGFRAME DOVERLAY, 0, STATIC
        FUNCALL i2c_sht30_StartMeasurement, bsp_I2C_SendByte
        LOCFRAME ISTACK, 2, STACK
        LOCFRAME PSTACK, 0, STACK
        LOCFRAME XSTACK, 0, STACK
        LOCFRAME IOVERLAY, 0, STATIC
        LOCFRAME DOVERLAY, 0, STATIC
        ARGFRAME ISTACK, 2, STACK
        ARGFRAME PSTACK, 0, STACK
        ARGFRAME XSTACK, 0, STACK
        ARGFRAME IOVERLAY, 0, STATIC
        ARGFRAME DOVERLAY, 0, STATIC
        FUNCALL i2c_sht30_StartMeasurement, bsp_I2C_GetAck
        LOCFRAME ISTACK, 2, STACK
        LOCFRAME PSTACK, 0, STACK
        LOCFRAME XSTACK, 0, STACK
        LOCFRAME IOVERLAY, 0, STATIC
        LOCFRAME DOVERLAY, 0, STATIC
        ARGFRAME ISTACK, 2, STACK
        ARGFRAME PSTACK, 0, STACK
        ARGFRAME XSTACK, 0, STACK
        ARGFRAME IOVERLAY, 0, STATIC
        ARGFRAME DOVERLAY, 0, STATIC
        FUNCALL i2c_sht30_StartMeasurement, bsp_I2C_SendByte
        LOCFRAME ISTACK, 2, STACK
        LOCFRAME PSTACK, 0, STACK
        LOCFRAME XSTACK, 0, STACK
        LOCFRAME IOVERLAY, 0, STATIC
        LOCFRAME DOVERLAY, 0, STATIC
        ARGFRAME ISTACK, 2, STACK
        ARGFRAME PSTACK, 0, STACK
        ARGFRAME XSTACK, 0, STACK
        ARGFRAME IOVERLAY, 0, STATIC
        ARGFRAME DOVERLAY, 0, STATIC
        FUNCALL i2c_sht30_StartMeasurement, bsp_I2C_GetAck
        LOCFRAME ISTACK, 2, STACK
        LOCFRAME PSTACK, 0, STACK
        LOCFRAME XSTACK, 0, STACK
        LOCFRAME IOVERLAY, 0, STATIC
        LOCFRAME DOVERLAY, 0, STATIC
        ARGFRAME ISTACK, 2, STACK
        ARGFRAME PSTACK, 0, STACK
        ARGFRAME XSTACK, 0, STACK
        ARGFRAME IOVERLAY, 0, STATIC
        ARGFRAME DOVERLAY, 0, STATIC
        FUNCALL i2c_sht30_StartMeasurement, bsp_I2C_SendByte
        LOCFRAME ISTACK, 2, STACK
        LOCFRAME PSTACK, 0, STACK
        LOCFRAME XSTACK, 0, STACK
        LOCFRAME IOVERLAY, 0, STATIC
        LOCFRAME DOVERLAY, 0, STATIC
        ARGFRAME ISTACK, 2, STACK
        ARGFRAME PSTACK, 0, STACK
        ARGFRAME XSTACK, 0, STACK
        ARGFRAME IOVERLAY, 0, STATIC
        ARGFRAME DOVERLAY, 0, STATIC
        FUNCALL i2c_sht30_StartMeasurement, bsp_I2C_GetAck
        LOCFRAME ISTACK, 2, STACK
        LOCFRAME PSTACK, 0, STACK
        LOCFRAME XSTACK, 0, STACK
        LOCFRAME IOVERLAY, 0, STATIC
        LOCFRAME DOVERLAY, 0, STATIC
        ARGFRAME ISTACK, 2, STACK
        ARGFRAME PSTACK, 0, STACK
        ARGFRAME XSTACK, 0, STACK
        ARGFRAME IOVERLAY, 0, STATIC
        ARGFRAME DOVERLAY, 0, STATIC
        FUNCALL i2c_sht30_StartMeasurement, bsp_I2C_Stop
        LOCFRAME ISTACK, 2, STACK
        LOCFRAME PSTACK, 0, STACK
        LOCFRAME XSTACK, 0, STACK
        LOCFRAME IOVERLAY, 0, STATIC
        LOCFRAME DOVERLAY, 0, STATIC
        ARGFRAME ISTACK, 2, STACK
        ARGFRAME PSTACK, 0, STACK
        ARGFRAME XSTACK, 0, STACK
        ARGFRAME IOVERLAY, 0, STATIC
        ARGFRAME DOVERLAY, 0, STATIC
        FUNCALL i2c_sht30_StartMeasurement, osal_start_timerEx
        LOCFRAME ISTACK, 2, STACK
        LOCFRAME PSTACK, 0, STACK
        LOCFRAME XSTACK, 0, STACK
        LOCFRAME IOVERLAY, 0, STATIC
        LOCFRAME DOVERLAY, 0, STATIC
        ARGFRAME ISTACK, 2, STACK
        ARGFRAME PSTACK, 0, STACK
        ARGFRAME XSTACK, 0, STACK
        ARGFRAME IOVERLAY, 0, STATIC
        ARGFRAME DOVERLAY, 0, STATIC
        FUNCALL i2c_sht30_StartMeasurement, bsp_I2C_Stop
        LOCFRAME ISTACK, 2, STACK
        LOCFRAME PSTACK, 0, STACK
        LOCFRAME XSTACK, 0, STACK
        LOCFRAME IOVERLAY, 0, STATIC
        LOCFRAME DOVERLAY, 0, STATIC
        ARGFRAME ISTACK, 2, STACK
        ARGFRAME PSTACK, 0, STACK
        ARGFRAME XSTACK, 0, STACK
        ARGFRAME IOVERLAY, 0, STATIC
        ARGFRAME DOVERLAY, 0, STATIC
        PUSH    DPL
        CFI DPL0 Frame(CFA_SP, 4)
        CFI CFA_SP SP+-4
        PUSH    DPH
        CFI DPH0 Frame(CFA_SP, 5)
        CFI CFA_SP SP+-5
        ; Saved register size: 2
        ; Auto size: 0
//  104     // 1. ·˘ËÍ˛âÁżĂüÁî
//  105     if(!SHT30_WriteCmd(SHT30_CMD_MEAS_HIGH))
        ; Setup parameters for call to function bsp_I2C_Start
        LCALL   ??bsp_I2C_Start?relay
        ; Setup parameters for call to function bsp_I2C_SendByte
        MOV     R1,#-0x78
        LCALL   ?Subroutine1 & 0xFFFF
??CrossCallReturnLabel_4:
        JNZ     ??i2c_sht30_StartMeasurement_0
        ; Setup parameters for call to function bsp_I2C_SendByte
        MOV     R1,#0x2c
        LCALL   ?Subroutine1 & 0xFFFF
??CrossCallReturnLabel_5:
        JNZ     ??i2c_sht30_StartMeasurement_0
        ; Setup parameters for call to function bsp_I2C_SendByte
        MOV     R1,#0x6
        LCALL   ?Subroutine1 & 0xFFFF
??CrossCallReturnLabel_6:
        JNZ     ??i2c_sht30_StartMeasurement_0
        ; Setup parameters for call to function bsp_I2C_Stop
        LCALL   ??bsp_I2C_Stop?relay
//  106     {
//  107         return 0; // ·˘ËÍĂüÁîĘ§°Ü
//  108     }
//  109     
//  110     // 2. (V3.2) Ćô¶Ż 50ms µÄ OSAL Ň»´ÎĐÔ¶¨Ę±Ć÷, 
//  111     //    ¶¨Ę±Ć÷µ˝ĆÚşó, OSAL »á×Ô¶ŻĎň sht30_TaskID ·˘ËÍ SHT30_DATA_READY_EVT ĘÂĽţ
//  112     osal_start_timerEx(sht30_TaskID, SHT30_DATA_READY_EVT, SHT30_MEAS_WAIT_MS);
        ; Setup parameters for call to function osal_start_timerEx
        MOV     R4,#0x32
        MOV     R5,#0x0
        MOV     R2,#0x10
        MOV     R3,#0x0
        MOV     DPTR,#sht30_TaskID
        MOVX    A,@DPTR
        MOV     R1,A
        LCALL   ??osal_start_timerEx?relay
//  113     
//  114     return 1;
        MOV     R1,#0x1
        SJMP    ??i2c_sht30_StartMeasurement_1
??i2c_sht30_StartMeasurement_0:
        ; Setup parameters for call to function bsp_I2C_Stop
        LCALL   ??bsp_I2C_Stop?relay
        MOV     R1,#0x0
??i2c_sht30_StartMeasurement_1:
        POP     DPH
        CFI DPH0 SameValue
        CFI CFA_SP SP+-4
        POP     DPL
        CFI DPL0 SameValue
        CFI CFA_SP SP+-3
        LJMP    ?BRET
        CFI EndBlock cfiBlock1
//  115 }
//  116 
//  117 /**
//  118  * @brief   (V3.2) ¶ÁČˇ SHT30 ´«¸ĐĆ÷µÄÎÂĘŞ¶ČĘýľÝˇŁ
//  119  * @return  V3.1 ąć·¶µÄ Payload (8 ×Ö˝Ú) »ň 0 (Ę§°Ü)
//  120  */

        RSEG BANKED_CODE:CODE:NOROOT(0)
//  121 uint8 i2c_sht30_ReadData(uint8 *pBuf)
i2c_sht30_ReadData:
        CFI Block cfiBlock2 Using cfiCommon0
        CFI Function i2c_sht30_ReadData
        CODE
//  122 {
        FUNCALL i2c_sht30_ReadData, bsp_I2C_Start
        LOCFRAME ISTACK, 0, STACK
        LOCFRAME PSTACK, 0, STACK
        LOCFRAME XSTACK, 32, STACK
        LOCFRAME IOVERLAY, 0, STATIC
        LOCFRAME DOVERLAY, 0, STATIC
        ARGFRAME ISTACK, 0, STACK
        ARGFRAME PSTACK, 0, STACK
        ARGFRAME XSTACK, 32, STACK
        ARGFRAME IOVERLAY, 0, STATIC
        ARGFRAME DOVERLAY, 0, STATIC
        FUNCALL i2c_sht30_ReadData, bsp_I2C_SendByte
        LOCFRAME ISTACK, 0, STACK
        LOCFRAME PSTACK, 0, STACK
        LOCFRAME XSTACK, 32, STACK
        LOCFRAME IOVERLAY, 0, STATIC
        LOCFRAME DOVERLAY, 0, STATIC
        ARGFRAME ISTACK, 0, STACK
        ARGFRAME PSTACK, 0, STACK
        ARGFRAME XSTACK, 32, STACK
        ARGFRAME IOVERLAY, 0, STATIC
        ARGFRAME DOVERLAY, 0, STATIC
        FUNCALL i2c_sht30_ReadData, bsp_I2C_GetAck
        LOCFRAME ISTACK, 0, STACK
        LOCFRAME PSTACK, 0, STACK
        LOCFRAME XSTACK, 32, STACK
        LOCFRAME IOVERLAY, 0, STATIC
        LOCFRAME DOVERLAY, 0, STATIC
        ARGFRAME ISTACK, 0, STACK
        ARGFRAME PSTACK, 0, STACK
        ARGFRAME XSTACK, 32, STACK
        ARGFRAME IOVERLAY, 0, STATIC
        ARGFRAME DOVERLAY, 0, STATIC
        FUNCALL i2c_sht30_ReadData, bsp_I2C_Stop
        LOCFRAME ISTACK, 0, STACK
        LOCFRAME PSTACK, 0, STACK
        LOCFRAME XSTACK, 32, STACK
        LOCFRAME IOVERLAY, 0, STATIC
        LOCFRAME DOVERLAY, 0, STATIC
        ARGFRAME ISTACK, 0, STACK
        ARGFRAME PSTACK, 0, STACK
        ARGFRAME XSTACK, 32, STACK
        ARGFRAME IOVERLAY, 0, STATIC
        ARGFRAME DOVERLAY, 0, STATIC
        FUNCALL i2c_sht30_ReadData, bsp_I2C_ReadByte
        LOCFRAME ISTACK, 0, STACK
        LOCFRAME PSTACK, 0, STACK
        LOCFRAME XSTACK, 32, STACK
        LOCFRAME IOVERLAY, 0, STATIC
        LOCFRAME DOVERLAY, 0, STATIC
        ARGFRAME ISTACK, 0, STACK
        ARGFRAME PSTACK, 0, STACK
        ARGFRAME XSTACK, 32, STACK
        ARGFRAME IOVERLAY, 0, STATIC
        ARGFRAME DOVERLAY, 0, STATIC
        FUNCALL i2c_sht30_ReadData, bsp_I2C_SendAck
        LOCFRAME ISTACK, 0, STACK
        LOCFRAME PSTACK, 0, STACK
        LOCFRAME XSTACK, 32, STACK
        LOCFRAME IOVERLAY, 0, STATIC
        LOCFRAME DOVERLAY, 0, STATIC
        ARGFRAME ISTACK, 0, STACK
        ARGFRAME PSTACK, 0, STACK
        ARGFRAME XSTACK, 32, STACK
        ARGFRAME IOVERLAY, 0, STATIC
        ARGFRAME DOVERLAY, 0, STATIC
        FUNCALL i2c_sht30_ReadData, bsp_I2C_ReadByte
        LOCFRAME ISTACK, 0, STACK
        LOCFRAME PSTACK, 0, STACK
        LOCFRAME XSTACK, 32, STACK
        LOCFRAME IOVERLAY, 0, STATIC
        LOCFRAME DOVERLAY, 0, STATIC
        ARGFRAME ISTACK, 0, STACK
        ARGFRAME PSTACK, 0, STACK
        ARGFRAME XSTACK, 32, STACK
        ARGFRAME IOVERLAY, 0, STATIC
        ARGFRAME DOVERLAY, 0, STATIC
        FUNCALL i2c_sht30_ReadData, bsp_I2C_SendAck
        LOCFRAME ISTACK, 0, STACK
        LOCFRAME PSTACK, 0, STACK
        LOCFRAME XSTACK, 32, STACK
        LOCFRAME IOVERLAY, 0, STATIC
        LOCFRAME DOVERLAY, 0, STATIC
        ARGFRAME ISTACK, 0, STACK
        ARGFRAME PSTACK, 0, STACK
        ARGFRAME XSTACK, 32, STACK
        ARGFRAME IOVERLAY, 0, STATIC
        ARGFRAME DOVERLAY, 0, STATIC
        FUNCALL i2c_sht30_ReadData, bsp_I2C_ReadByte
        LOCFRAME ISTACK, 0, STACK
        LOCFRAME PSTACK, 0, STACK
        LOCFRAME XSTACK, 32, STACK
        LOCFRAME IOVERLAY, 0, STATIC
        LOCFRAME DOVERLAY, 0, STATIC
        ARGFRAME ISTACK, 0, STACK
        ARGFRAME PSTACK, 0, STACK
        ARGFRAME XSTACK, 32, STACK
        ARGFRAME IOVERLAY, 0, STATIC
        ARGFRAME DOVERLAY, 0, STATIC
        FUNCALL i2c_sht30_ReadData, bsp_I2C_SendAck
        LOCFRAME ISTACK, 0, STACK
        LOCFRAME PSTACK, 0, STACK
        LOCFRAME XSTACK, 32, STACK
        LOCFRAME IOVERLAY, 0, STATIC
        LOCFRAME DOVERLAY, 0, STATIC
        ARGFRAME ISTACK, 0, STACK
        ARGFRAME PSTACK, 0, STACK
        ARGFRAME XSTACK, 32, STACK
        ARGFRAME IOVERLAY, 0, STATIC
        ARGFRAME DOVERLAY, 0, STATIC
        FUNCALL i2c_sht30_ReadData, bsp_I2C_ReadByte
        LOCFRAME ISTACK, 0, STACK
        LOCFRAME PSTACK, 0, STACK
        LOCFRAME XSTACK, 32, STACK
        LOCFRAME IOVERLAY, 0, STATIC
        LOCFRAME DOVERLAY, 0, STATIC
        ARGFRAME ISTACK, 0, STACK
        ARGFRAME PSTACK, 0, STACK
        ARGFRAME XSTACK, 32, STACK
        ARGFRAME IOVERLAY, 0, STATIC
        ARGFRAME DOVERLAY, 0, STATIC
        FUNCALL i2c_sht30_ReadData, bsp_I2C_SendAck
        LOCFRAME ISTACK, 0, STACK
        LOCFRAME PSTACK, 0, STACK
        LOCFRAME XSTACK, 32, STACK
        LOCFRAME IOVERLAY, 0, STATIC
        LOCFRAME DOVERLAY, 0, STATIC
        ARGFRAME ISTACK, 0, STACK
        ARGFRAME PSTACK, 0, STACK
        ARGFRAME XSTACK, 32, STACK
        ARGFRAME IOVERLAY, 0, STATIC
        ARGFRAME DOVERLAY, 0, STATIC
        FUNCALL i2c_sht30_ReadData, bsp_I2C_ReadByte
        LOCFRAME ISTACK, 0, STACK
        LOCFRAME PSTACK, 0, STACK
        LOCFRAME XSTACK, 32, STACK
        LOCFRAME IOVERLAY, 0, STATIC
        LOCFRAME DOVERLAY, 0, STATIC
        ARGFRAME ISTACK, 0, STACK
        ARGFRAME PSTACK, 0, STACK
        ARGFRAME XSTACK, 32, STACK
        ARGFRAME IOVERLAY, 0, STATIC
        ARGFRAME DOVERLAY, 0, STATIC
        FUNCALL i2c_sht30_ReadData, bsp_I2C_SendAck
        LOCFRAME ISTACK, 0, STACK
        LOCFRAME PSTACK, 0, STACK
        LOCFRAME XSTACK, 32, STACK
        LOCFRAME IOVERLAY, 0, STATIC
        LOCFRAME DOVERLAY, 0, STATIC
        ARGFRAME ISTACK, 0, STACK
        ARGFRAME PSTACK, 0, STACK
        ARGFRAME XSTACK, 32, STACK
        ARGFRAME IOVERLAY, 0, STATIC
        ARGFRAME DOVERLAY, 0, STATIC
        FUNCALL i2c_sht30_ReadData, bsp_I2C_ReadByte
        LOCFRAME ISTACK, 0, STACK
        LOCFRAME PSTACK, 0, STACK
        LOCFRAME XSTACK, 32, STACK
        LOCFRAME IOVERLAY, 0, STATIC
        LOCFRAME DOVERLAY, 0, STATIC
        ARGFRAME ISTACK, 0, STACK
        ARGFRAME PSTACK, 0, STACK
        ARGFRAME XSTACK, 32, STACK
        ARGFRAME IOVERLAY, 0, STATIC
        ARGFRAME DOVERLAY, 0, STATIC
        FUNCALL i2c_sht30_ReadData, bsp_I2C_SendAck
        LOCFRAME ISTACK, 0, STACK
        LOCFRAME PSTACK, 0, STACK
        LOCFRAME XSTACK, 32, STACK
        LOCFRAME IOVERLAY, 0, STATIC
        LOCFRAME DOVERLAY, 0, STATIC
        ARGFRAME ISTACK, 0, STACK
        ARGFRAME PSTACK, 0, STACK
        ARGFRAME XSTACK, 32, STACK
        ARGFRAME IOVERLAY, 0, STATIC
        ARGFRAME DOVERLAY, 0, STATIC
        FUNCALL i2c_sht30_ReadData, bsp_I2C_Stop
        LOCFRAME ISTACK, 0, STACK
        LOCFRAME PSTACK, 0, STACK
        LOCFRAME XSTACK, 32, STACK
        LOCFRAME IOVERLAY, 0, STATIC
        LOCFRAME DOVERLAY, 0, STATIC
        ARGFRAME ISTACK, 0, STACK
        ARGFRAME PSTACK, 0, STACK
        ARGFRAME XSTACK, 32, STACK
        ARGFRAME IOVERLAY, 0, STATIC
        ARGFRAME DOVERLAY, 0, STATIC
        FUNCALL i2c_sht30_ReadData, osal_memcpy
        LOCFRAME ISTACK, 0, STACK
        LOCFRAME PSTACK, 0, STACK
        LOCFRAME XSTACK, 35, STACK
        LOCFRAME IOVERLAY, 0, STATIC
        LOCFRAME DOVERLAY, 0, STATIC
        ARGFRAME ISTACK, 0, STACK
        ARGFRAME PSTACK, 0, STACK
        ARGFRAME XSTACK, 35, STACK
        ARGFRAME IOVERLAY, 0, STATIC
        ARGFRAME DOVERLAY, 0, STATIC
        FUNCALL i2c_sht30_ReadData, osal_memcpy
        LOCFRAME ISTACK, 0, STACK
        LOCFRAME PSTACK, 0, STACK
        LOCFRAME XSTACK, 35, STACK
        LOCFRAME IOVERLAY, 0, STATIC
        LOCFRAME DOVERLAY, 0, STATIC
        ARGFRAME ISTACK, 0, STACK
        ARGFRAME PSTACK, 0, STACK
        ARGFRAME XSTACK, 35, STACK
        ARGFRAME IOVERLAY, 0, STATIC
        ARGFRAME DOVERLAY, 0, STATIC
        MOV     A,#-0x10
        LCALL   ?BANKED_ENTER_XDATA
        CFI DPH0 load(1, XDATA, add(CFA_XSP16, literal(-1)))
        CFI DPL0 load(1, XDATA, add(CFA_XSP16, literal(-2)))
        CFI ?BRET_EXT load(1, XDATA, add(CFA_XSP16, literal(-3)))
        CFI ?RET_HIGH load(1, XDATA, add(CFA_XSP16, literal(-4)))
        CFI ?RET_LOW load(1, XDATA, add(CFA_XSP16, literal(-5)))
        CFI R7 load(1, XDATA, add(CFA_XSP16, literal(-6)))
        CFI V7 load(1, XDATA, add(CFA_XSP16, literal(-7)))
        CFI V6 load(1, XDATA, add(CFA_XSP16, literal(-8)))
        CFI V5 load(1, XDATA, add(CFA_XSP16, literal(-9)))
        CFI V4 load(1, XDATA, add(CFA_XSP16, literal(-10)))
        CFI V3 load(1, XDATA, add(CFA_XSP16, literal(-11)))
        CFI V2 load(1, XDATA, add(CFA_XSP16, literal(-12)))
        CFI V1 load(1, XDATA, add(CFA_XSP16, literal(-13)))
        CFI V0 load(1, XDATA, add(CFA_XSP16, literal(-14)))
        CFI VB load(1, XDATA, add(CFA_XSP16, literal(-15)))
        CFI R6 load(1, XDATA, add(CFA_XSP16, literal(-16)))
        CFI CFA_SP SP+0
        CFI CFA_XSP16 add(XSP16, 16)
        ; Saved register size: 16
        ; Auto size: 16
        MOV     A,#-0x10
        LCALL   ?ALLOC_XSTACK8
        CFI CFA_XSP16 add(XSP16, 32)
        MOV     DPL,?XSP + 0
        MOV     DPH,?XSP + 1
        MOV     A,R2
        MOVX    @DPTR,A
        INC     DPTR
        MOV     A,R3
        MOVX    @DPTR,A
//  123     uint8 data_buffer[6];
//  124     uint16 raw_temp, raw_rh;
//  125     float temp, rh;
//  126 
//  127     // (V3.2) ´ËĘ±¶¨Ę±Ć÷ŇŃµ˝ĆÚ, ´«¸ĐĆ÷ĘýľÝŇŃ×Ľ±¸şĂ
//  128     
//  129     // 1. Ćô¶Ż I2C ¶Á
//  130     bsp_I2C_Start();
        ; Setup parameters for call to function bsp_I2C_Start
        LCALL   ??bsp_I2C_Start?relay
//  131     bsp_I2C_SendByte(SHT30_ADDR << 1 | 1); // 7Î»µŘÖ· + ¶Á(1)
        ; Setup parameters for call to function bsp_I2C_SendByte
        MOV     R1,#-0x77
        LCALL   ?Subroutine1 & 0xFFFF
//  132     if(bsp_I2C_GetAck())
??CrossCallReturnLabel_3:
        JZ      ??i2c_sht30_ReadData_0
//  133     {
//  134         bsp_I2C_Stop();
        ; Setup parameters for call to function bsp_I2C_Stop
        LCALL   ??bsp_I2C_Stop?relay
//  135         return 0; // ÎŢÓ¦´đ
        MOV     R1,#0x0
        LJMP    ??i2c_sht30_ReadData_1 & 0xFFFF
//  136     }
//  137     
//  138     // 2. ¶ÁČˇ 6 ×Ö˝ÚĘýľÝ (T_MSB, T_LSB, T_CRC, RH_MSB, RH_LSB, RH_CRC)
//  139     data_buffer[0] = bsp_I2C_ReadByte(); // T_MSB
??i2c_sht30_ReadData_0:
        ; Setup parameters for call to function bsp_I2C_ReadByte
        LCALL   ??bsp_I2C_ReadByte?relay
        MOV     A,#0x2
        LCALL   ?XSTACK_DISP0_8
        LCALL   ?Subroutine0 & 0xFFFF
//  140     bsp_I2C_SendAck(0); // ·˘ËÍACK
//  141     data_buffer[1] = bsp_I2C_ReadByte(); // T_LSB
??CrossCallReturnLabel_0:
        MOV     ?V0 + 0,A
        MOV     A,#0x3
        LCALL   ?XSTACK_DISP0_8
        LCALL   ?Subroutine2 & 0xFFFF
//  142     bsp_I2C_SendAck(0); // ·˘ËÍACK
//  143     data_buffer[2] = bsp_I2C_ReadByte(); // T_CRC (şöÂÔ)
??CrossCallReturnLabel_7:
        MOV     A,#0x4
        LCALL   ?XSTACK_DISP0_8
        LCALL   ?Subroutine0 & 0xFFFF
//  144     bsp_I2C_SendAck(0); // ·˘ËÍACK
//  145     data_buffer[3] = bsp_I2C_ReadByte(); // RH_MSB
??CrossCallReturnLabel_1:
        MOV     R7,A
        MOV     A,#0x5
        LCALL   ?XSTACK_DISP0_8
        LCALL   ?Subroutine0 & 0xFFFF
//  146     bsp_I2C_SendAck(0); // ·˘ËÍACK
//  147     data_buffer[4] = bsp_I2C_ReadByte(); // RH_LSB
??CrossCallReturnLabel_2:
        MOV     R6,A
        MOV     A,#0x6
        LCALL   ?XSTACK_DISP0_8
        LCALL   ?Subroutine2 & 0xFFFF
//  148     bsp_I2C_SendAck(0); // ·˘ËÍACK
//  149     data_buffer[5] = bsp_I2C_ReadByte(); // RH_CRC (şöÂÔ)
??CrossCallReturnLabel_8:
        MOV     A,#0x7
        LCALL   ?XSTACK_DISP0_8
        MOV     A,R1
        MOVX    @DPTR,A
//  150     bsp_I2C_SendAck(1); // ·˘ËÍNACK (˝áĘř¶ÁČˇ)
        ; Setup parameters for call to function bsp_I2C_SendAck
        MOV     R1,#0x1
        LCALL   ??bsp_I2C_SendAck?relay
//  151     
//  152     bsp_I2C_Stop();
        ; Setup parameters for call to function bsp_I2C_Stop
        LCALL   ??bsp_I2C_Stop?relay
//  153     
//  154     // 3. (żÉŃˇ) ĐŁŃéCRC... ÎŞĽňµĄĆđĽű, ´Ë´¦ĘˇÂÔ
//  155     
//  156     // 4. ×Ş»»ĘýľÝ
//  157     raw_temp = (data_buffer[0] << 8) | data_buffer[1];
//  158     raw_rh   = (data_buffer[3] << 8) | data_buffer[4];
//  159     
//  160     // 5. ĽĆËăĘµĽĘÎÂĘŞ¶Č (¸ůľÝSHT30ĘÖ˛áą«Ę˝)
//  161     temp = -45.0f + 175.0f * (raw_temp / 65535.0f);
        MOV     A,#0x2
        LCALL   ?XSTACK_DISP0_8
        MOVX    A,@DPTR
        MOV     ?V0 + 1,A
        CLR     A
        MOV     ?V0 + 2,A
        MOV     ?V0 + 3,A
        MOV     R0,#?V0 + 0
        LCALL   ?UL_TO_FLT
        MOV     DPTR,#__Constant_477fff00
        MOV     R0,#?V0 + 4
        LCALL   ?L_MOV_X
        MOV     R0,#?V0 + 0
        MOV     R1,#?V0 + 4
        LCALL   ?FLT_DIV
        MOV     DPTR,#__Constant_432f0000
        MOV     R0,#?V0 + 4
        LCALL   ?L_MOV_X
        MOV     R0,#?V0 + 0
        MOV     R1,#?V0 + 4
        LCALL   ?FLT_MUL
        MOV     DPTR,#__Constant_c2340000
        MOV     R0,#?V0 + 4
        LCALL   ?L_MOV_X
        MOV     R0,#?V0 + 0
        MOV     R1,#?V0 + 4
        LCALL   ?FLT_ADD
        MOV     A,#0xc
        LCALL   ?XSTACK_DISP0_8
        MOV     A,?V0 + 0
        MOVX    @DPTR,A
        INC     DPTR
        MOV     A,?V0 + 1
        MOVX    @DPTR,A
        INC     DPTR
        MOV     A,?V0 + 2
        MOVX    @DPTR,A
        INC     DPTR
        MOV     A,?V0 + 3
        MOVX    @DPTR,A
//  162     rh   = 100.0f * (raw_rh / 65535.0f);
        MOV     A,R7
        MOV     ?V0 + 0,R6
        MOV     ?V0 + 1,A
        CLR     A
        MOV     ?V0 + 2,A
        MOV     ?V0 + 3,A
        MOV     R0,#?V0 + 0
        LCALL   ?UL_TO_FLT
        MOV     DPTR,#__Constant_477fff00
        MOV     R0,#?V0 + 4
        LCALL   ?L_MOV_X
        MOV     R0,#?V0 + 0
        MOV     R1,#?V0 + 4
        LCALL   ?FLT_DIV
        MOV     DPTR,#__Constant_42c80000
        MOV     R0,#?V0 + 4
        LCALL   ?L_MOV_X
        MOV     R0,#?V0 + 0
        MOV     R1,#?V0 + 4
        LCALL   ?FLT_MUL
        MOV     A,#0x8
        LCALL   ?XSTACK_DISP0_8
        MOV     R0,#?V0 + 0
        LCALL   ?L_MOV_TO_X
//  163     
//  164     // 6. °´ŐŐ V3.1 ąć·¶´ň°üĘýľÝµ˝»şłĺÇř
//  165     // pBuf[0..3] = float temp
//  166     // pBuf[4..7] = float rh
//  167     osal_memcpy(pBuf, &temp, 4);
        ; Setup parameters for call to function osal_memcpy
        MOV     A,#0xc
        LCALL   ?XSTACK_DISP0_8
        MOV     R1,DPL
        MOV     R2,DPH
        MOV     ?V0 + 0,R1
        MOV     ?V0 + 1,R2
        MOV     ?V0 + 2,#0x0
        MOV     R0,#?V0 + 0
        LCALL   ?PUSH_XSTACK_I_THREE
        CFI CFA_XSP16 add(XSP16, 35)
        MOV     R4,#0x4
        MOV     R5,#0x0
        MOV     A,#0x3
        LCALL   ?XSTACK_DISP0_8
        MOVX    A,@DPTR
        MOV     R2,A
        INC     DPTR
        MOVX    A,@DPTR
        MOV     R3,A
        LCALL   ??osal_memcpy?relay
        MOV     A,#0x3
        LCALL   ?DEALLOC_XSTACK8
        CFI CFA_XSP16 add(XSP16, 32)
//  168     osal_memcpy(pBuf + 4, &rh, 4);
        ; Setup parameters for call to function osal_memcpy
        MOV     A,#0x8
        LCALL   ?XSTACK_DISP0_8
        MOV     R1,DPL
        MOV     R2,DPH
        MOV     ?V0 + 0,R1
        MOV     ?V0 + 1,R2
        MOV     R0,#?V0 + 0
        LCALL   ?PUSH_XSTACK_I_THREE
        CFI CFA_XSP16 add(XSP16, 35)
        MOV     R4,#0x4
        MOV     R5,#0x0
        MOV     A,#0x3
        LCALL   ?XSTACK_DISP0_8
        MOVX    A,@DPTR
        ADD     A,#0x4
        MOV     R2,A
        INC     DPTR
        MOVX    A,@DPTR
        ADDC    A,#0x0
        MOV     R3,A
        LCALL   ??osal_memcpy?relay
        MOV     A,#0x3
        LCALL   ?DEALLOC_XSTACK8
        CFI CFA_XSP16 add(XSP16, 32)
//  169     
//  170     // 7. ·µ»Ř Payload ł¤¶Č
//  171     return 8;
        MOV     R1,#0x8
??i2c_sht30_ReadData_1:
        MOV     A,#0x10
        LCALL   ?DEALLOC_XSTACK8
        CFI CFA_XSP16 add(XSP16, 16)
        MOV     R7,#0x8
        LJMP    ?BANKED_LEAVE_XDATA
        CFI EndBlock cfiBlock2
//  172 }

        RSEG BANKED_CODE:CODE:NOROOT(0)
?Subroutine2:
        CFI Block cfiCond3 Using cfiCommon0
        CFI NoFunction
        CFI Conditional ??CrossCallReturnLabel_7
        CFI R6 load(1, XDATA, add(CFA_XSP16, literal(-16)))
        CFI VB load(1, XDATA, add(CFA_XSP16, literal(-15)))
        CFI V0 load(1, XDATA, add(CFA_XSP16, literal(-14)))
        CFI V1 load(1, XDATA, add(CFA_XSP16, literal(-13)))
        CFI V2 load(1, XDATA, add(CFA_XSP16, literal(-12)))
        CFI V3 load(1, XDATA, add(CFA_XSP16, literal(-11)))
        CFI V4 load(1, XDATA, add(CFA_XSP16, literal(-10)))
        CFI V5 load(1, XDATA, add(CFA_XSP16, literal(-9)))
        CFI V6 load(1, XDATA, add(CFA_XSP16, literal(-8)))
        CFI V7 load(1, XDATA, add(CFA_XSP16, literal(-7)))
        CFI R7 load(1, XDATA, add(CFA_XSP16, literal(-6)))
        CFI ?RET_LOW load(1, XDATA, add(CFA_XSP16, literal(-5)))
        CFI ?RET_HIGH load(1, XDATA, add(CFA_XSP16, literal(-4)))
        CFI ?BRET_EXT load(1, XDATA, add(CFA_XSP16, literal(-3)))
        CFI DPL0 load(1, XDATA, add(CFA_XSP16, literal(-2)))
        CFI DPH0 load(1, XDATA, add(CFA_XSP16, literal(-1)))
        CFI CFA_SP SP+0
        CFI CFA_XSP16 add(XSP16, 32)
        CFI Block cfiCond4 Using cfiCommon0
        CFI (cfiCond4) NoFunction
        CFI (cfiCond4) Conditional ??CrossCallReturnLabel_8
        CFI (cfiCond4) R6 load(1, XDATA, add(CFA_XSP16, literal(-16)))
        CFI (cfiCond4) VB load(1, XDATA, add(CFA_XSP16, literal(-15)))
        CFI (cfiCond4) V0 load(1, XDATA, add(CFA_XSP16, literal(-14)))
        CFI (cfiCond4) V1 load(1, XDATA, add(CFA_XSP16, literal(-13)))
        CFI (cfiCond4) V2 load(1, XDATA, add(CFA_XSP16, literal(-12)))
        CFI (cfiCond4) V3 load(1, XDATA, add(CFA_XSP16, literal(-11)))
        CFI (cfiCond4) V4 load(1, XDATA, add(CFA_XSP16, literal(-10)))
        CFI (cfiCond4) V5 load(1, XDATA, add(CFA_XSP16, literal(-9)))
        CFI (cfiCond4) V6 load(1, XDATA, add(CFA_XSP16, literal(-8)))
        CFI (cfiCond4) V7 load(1, XDATA, add(CFA_XSP16, literal(-7)))
        CFI (cfiCond4) R7 load(1, XDATA, add(CFA_XSP16, literal(-6)))
        CFI (cfiCond4) ?RET_LOW load(1, XDATA, add(CFA_XSP16, literal(-5)))
        CFI (cfiCond4) ?RET_HIGH load(1, XDATA, add(CFA_XSP16, literal(-4)))
        CFI (cfiCond4) ?BRET_EXT load(1, XDATA, add(CFA_XSP16, literal(-3)))
        CFI (cfiCond4) DPL0 load(1, XDATA, add(CFA_XSP16, literal(-2)))
        CFI (cfiCond4) DPH0 load(1, XDATA, add(CFA_XSP16, literal(-1)))
        CFI (cfiCond4) CFA_SP SP+0
        CFI (cfiCond4) CFA_XSP16 add(XSP16, 32)
        CFI Block cfiPicker5 Using cfiCommon1
        CFI (cfiPicker5) NoFunction
        CFI (cfiPicker5) Picker
        LCALL   ?Subroutine3 & 0xFFFF
??CrossCallReturnLabel_9:
        RET
        CFI EndBlock cfiCond3
        CFI EndBlock cfiCond4
        CFI EndBlock cfiPicker5

        RSEG BANKED_CODE:CODE:NOROOT(0)
?Subroutine3:
        CFI Block cfiCond6 Using cfiCommon0
        CFI NoFunction
        CFI Conditional ??CrossCallReturnLabel_9, ??CrossCallReturnLabel_7
        CFI R6 load(1, XDATA, add(CFA_XSP16, literal(-16)))
        CFI VB load(1, XDATA, add(CFA_XSP16, literal(-15)))
        CFI V0 load(1, XDATA, add(CFA_XSP16, literal(-14)))
        CFI V1 load(1, XDATA, add(CFA_XSP16, literal(-13)))
        CFI V2 load(1, XDATA, add(CFA_XSP16, literal(-12)))
        CFI V3 load(1, XDATA, add(CFA_XSP16, literal(-11)))
        CFI V4 load(1, XDATA, add(CFA_XSP16, literal(-10)))
        CFI V5 load(1, XDATA, add(CFA_XSP16, literal(-9)))
        CFI V6 load(1, XDATA, add(CFA_XSP16, literal(-8)))
        CFI V7 load(1, XDATA, add(CFA_XSP16, literal(-7)))
        CFI R7 load(1, XDATA, add(CFA_XSP16, literal(-6)))
        CFI ?RET_LOW load(1, XDATA, add(CFA_XSP16, literal(-5)))
        CFI ?RET_HIGH load(1, XDATA, add(CFA_XSP16, literal(-4)))
        CFI ?BRET_EXT load(1, XDATA, add(CFA_XSP16, literal(-3)))
        CFI DPL0 load(1, XDATA, add(CFA_XSP16, literal(-2)))
        CFI DPH0 load(1, XDATA, add(CFA_XSP16, literal(-1)))
        CFI CFA_SP SP+0
        CFI CFA_XSP16 add(XSP16, 32)
        CFI Block cfiCond7 Using cfiCommon0
        CFI (cfiCond7) NoFunction
        CFI (cfiCond7) Conditional ??CrossCallReturnLabel_9, ??CrossCallReturnLabel_8
        CFI (cfiCond7) R6 load(1, XDATA, add(CFA_XSP16, literal(-16)))
        CFI (cfiCond7) VB load(1, XDATA, add(CFA_XSP16, literal(-15)))
        CFI (cfiCond7) V0 load(1, XDATA, add(CFA_XSP16, literal(-14)))
        CFI (cfiCond7) V1 load(1, XDATA, add(CFA_XSP16, literal(-13)))
        CFI (cfiCond7) V2 load(1, XDATA, add(CFA_XSP16, literal(-12)))
        CFI (cfiCond7) V3 load(1, XDATA, add(CFA_XSP16, literal(-11)))
        CFI (cfiCond7) V4 load(1, XDATA, add(CFA_XSP16, literal(-10)))
        CFI (cfiCond7) V5 load(1, XDATA, add(CFA_XSP16, literal(-9)))
        CFI (cfiCond7) V6 load(1, XDATA, add(CFA_XSP16, literal(-8)))
        CFI (cfiCond7) V7 load(1, XDATA, add(CFA_XSP16, literal(-7)))
        CFI (cfiCond7) R7 load(1, XDATA, add(CFA_XSP16, literal(-6)))
        CFI (cfiCond7) ?RET_LOW load(1, XDATA, add(CFA_XSP16, literal(-5)))
        CFI (cfiCond7) ?RET_HIGH load(1, XDATA, add(CFA_XSP16, literal(-4)))
        CFI (cfiCond7) ?BRET_EXT load(1, XDATA, add(CFA_XSP16, literal(-3)))
        CFI (cfiCond7) DPL0 load(1, XDATA, add(CFA_XSP16, literal(-2)))
        CFI (cfiCond7) DPH0 load(1, XDATA, add(CFA_XSP16, literal(-1)))
        CFI (cfiCond7) CFA_SP SP+0
        CFI (cfiCond7) CFA_XSP16 add(XSP16, 32)
        CFI Block cfiCond8 Using cfiCommon0
        CFI (cfiCond8) NoFunction
        CFI (cfiCond8) Conditional ??CrossCallReturnLabel_10, ??CrossCallReturnLabel_0
        CFI (cfiCond8) R6 load(1, XDATA, add(CFA_XSP16, literal(-16)))
        CFI (cfiCond8) VB load(1, XDATA, add(CFA_XSP16, literal(-15)))
        CFI (cfiCond8) V0 load(1, XDATA, add(CFA_XSP16, literal(-14)))
        CFI (cfiCond8) V1 load(1, XDATA, add(CFA_XSP16, literal(-13)))
        CFI (cfiCond8) V2 load(1, XDATA, add(CFA_XSP16, literal(-12)))
        CFI (cfiCond8) V3 load(1, XDATA, add(CFA_XSP16, literal(-11)))
        CFI (cfiCond8) V4 load(1, XDATA, add(CFA_XSP16, literal(-10)))
        CFI (cfiCond8) V5 load(1, XDATA, add(CFA_XSP16, literal(-9)))
        CFI (cfiCond8) V6 load(1, XDATA, add(CFA_XSP16, literal(-8)))
        CFI (cfiCond8) V7 load(1, XDATA, add(CFA_XSP16, literal(-7)))
        CFI (cfiCond8) R7 load(1, XDATA, add(CFA_XSP16, literal(-6)))
        CFI (cfiCond8) ?RET_LOW load(1, XDATA, add(CFA_XSP16, literal(-5)))
        CFI (cfiCond8) ?RET_HIGH load(1, XDATA, add(CFA_XSP16, literal(-4)))
        CFI (cfiCond8) ?BRET_EXT load(1, XDATA, add(CFA_XSP16, literal(-3)))
        CFI (cfiCond8) DPL0 load(1, XDATA, add(CFA_XSP16, literal(-2)))
        CFI (cfiCond8) DPH0 load(1, XDATA, add(CFA_XSP16, literal(-1)))
        CFI (cfiCond8) CFA_SP SP+0
        CFI (cfiCond8) CFA_XSP16 add(XSP16, 32)
        CFI Block cfiCond9 Using cfiCommon0
        CFI (cfiCond9) NoFunction
        CFI (cfiCond9) Conditional ??CrossCallReturnLabel_10, ??CrossCallReturnLabel_1
        CFI (cfiCond9) R6 load(1, XDATA, add(CFA_XSP16, literal(-16)))
        CFI (cfiCond9) VB load(1, XDATA, add(CFA_XSP16, literal(-15)))
        CFI (cfiCond9) V0 load(1, XDATA, add(CFA_XSP16, literal(-14)))
        CFI (cfiCond9) V1 load(1, XDATA, add(CFA_XSP16, literal(-13)))
        CFI (cfiCond9) V2 load(1, XDATA, add(CFA_XSP16, literal(-12)))
        CFI (cfiCond9) V3 load(1, XDATA, add(CFA_XSP16, literal(-11)))
        CFI (cfiCond9) V4 load(1, XDATA, add(CFA_XSP16, literal(-10)))
        CFI (cfiCond9) V5 load(1, XDATA, add(CFA_XSP16, literal(-9)))
        CFI (cfiCond9) V6 load(1, XDATA, add(CFA_XSP16, literal(-8)))
        CFI (cfiCond9) V7 load(1, XDATA, add(CFA_XSP16, literal(-7)))
        CFI (cfiCond9) R7 load(1, XDATA, add(CFA_XSP16, literal(-6)))
        CFI (cfiCond9) ?RET_LOW load(1, XDATA, add(CFA_XSP16, literal(-5)))
        CFI (cfiCond9) ?RET_HIGH load(1, XDATA, add(CFA_XSP16, literal(-4)))
        CFI (cfiCond9) ?BRET_EXT load(1, XDATA, add(CFA_XSP16, literal(-3)))
        CFI (cfiCond9) DPL0 load(1, XDATA, add(CFA_XSP16, literal(-2)))
        CFI (cfiCond9) DPH0 load(1, XDATA, add(CFA_XSP16, literal(-1)))
        CFI (cfiCond9) CFA_SP SP+0
        CFI (cfiCond9) CFA_XSP16 add(XSP16, 32)
        CFI Block cfiCond10 Using cfiCommon0
        CFI (cfiCond10) NoFunction
        CFI (cfiCond10) Conditional ??CrossCallReturnLabel_10, ??CrossCallReturnLabel_2
        CFI (cfiCond10) R6 load(1, XDATA, add(CFA_XSP16, literal(-16)))
        CFI (cfiCond10) VB load(1, XDATA, add(CFA_XSP16, literal(-15)))
        CFI (cfiCond10) V0 load(1, XDATA, add(CFA_XSP16, literal(-14)))
        CFI (cfiCond10) V1 load(1, XDATA, add(CFA_XSP16, literal(-13)))
        CFI (cfiCond10) V2 load(1, XDATA, add(CFA_XSP16, literal(-12)))
        CFI (cfiCond10) V3 load(1, XDATA, add(CFA_XSP16, literal(-11)))
        CFI (cfiCond10) V4 load(1, XDATA, add(CFA_XSP16, literal(-10)))
        CFI (cfiCond10) V5 load(1, XDATA, add(CFA_XSP16, literal(-9)))
        CFI (cfiCond10) V6 load(1, XDATA, add(CFA_XSP16, literal(-8)))
        CFI (cfiCond10) V7 load(1, XDATA, add(CFA_XSP16, literal(-7)))
        CFI (cfiCond10) R7 load(1, XDATA, add(CFA_XSP16, literal(-6)))
        CFI (cfiCond10) ?RET_LOW load(1, XDATA, add(CFA_XSP16, literal(-5)))
        CFI (cfiCond10) ?RET_HIGH load(1, XDATA, add(CFA_XSP16, literal(-4)))
        CFI (cfiCond10) ?BRET_EXT load(1, XDATA, add(CFA_XSP16, literal(-3)))
        CFI (cfiCond10) DPL0 load(1, XDATA, add(CFA_XSP16, literal(-2)))
        CFI (cfiCond10) DPH0 load(1, XDATA, add(CFA_XSP16, literal(-1)))
        CFI (cfiCond10) CFA_SP SP+0
        CFI (cfiCond10) CFA_XSP16 add(XSP16, 32)
        CFI Block cfiPicker11 Using cfiCommon1
        CFI (cfiPicker11) NoFunction
        CFI (cfiPicker11) Picker
        MOV     A,R1
        MOVX    @DPTR,A
        ; Setup parameters for call to function bsp_I2C_SendAck
        ; Setup parameters for call to function bsp_I2C_SendAck
        ; Setup parameters for call to function bsp_I2C_SendAck
        ; Setup parameters for call to function bsp_I2C_SendAck
        ; Setup parameters for call to function bsp_I2C_SendAck
        MOV     R1,#0x0
        LCALL   ??bsp_I2C_SendAck?relay
        ; Setup parameters for call to function bsp_I2C_ReadByte
        ; Setup parameters for call to function bsp_I2C_ReadByte
        ; Setup parameters for call to function bsp_I2C_ReadByte
        ; Setup parameters for call to function bsp_I2C_ReadByte
        ; Setup parameters for call to function bsp_I2C_ReadByte
        LCALL   ??bsp_I2C_ReadByte?relay
        RET
        CFI EndBlock cfiCond6
        CFI EndBlock cfiCond7
        CFI EndBlock cfiCond8
        CFI EndBlock cfiCond9
        CFI EndBlock cfiCond10
        CFI EndBlock cfiPicker11

        RSEG BANKED_CODE:CODE:NOROOT(0)
?Subroutine1:
        CFI Block cfiCond12 Using cfiCommon0
        CFI NoFunction
        CFI Conditional ??CrossCallReturnLabel_4
        CFI DPL0 Frame(CFA_SP, 4)
        CFI DPH0 Frame(CFA_SP, 5)
        CFI CFA_SP SP+-5
        CFI Block cfiCond13 Using cfiCommon0
        CFI (cfiCond13) NoFunction
        CFI (cfiCond13) Conditional ??CrossCallReturnLabel_5
        CFI (cfiCond13) DPL0 Frame(CFA_SP, 4)
        CFI (cfiCond13) DPH0 Frame(CFA_SP, 5)
        CFI (cfiCond13) CFA_SP SP+-5
        CFI Block cfiCond14 Using cfiCommon0
        CFI (cfiCond14) NoFunction
        CFI (cfiCond14) Conditional ??CrossCallReturnLabel_6
        CFI (cfiCond14) DPL0 Frame(CFA_SP, 4)
        CFI (cfiCond14) DPH0 Frame(CFA_SP, 5)
        CFI (cfiCond14) CFA_SP SP+-5
        CFI Block cfiCond15 Using cfiCommon0
        CFI (cfiCond15) NoFunction
        CFI (cfiCond15) Conditional ??CrossCallReturnLabel_3
        CFI (cfiCond15) R6 load(1, XDATA, add(CFA_XSP16, literal(-16)))
        CFI (cfiCond15) VB load(1, XDATA, add(CFA_XSP16, literal(-15)))
        CFI (cfiCond15) V0 load(1, XDATA, add(CFA_XSP16, literal(-14)))
        CFI (cfiCond15) V1 load(1, XDATA, add(CFA_XSP16, literal(-13)))
        CFI (cfiCond15) V2 load(1, XDATA, add(CFA_XSP16, literal(-12)))
        CFI (cfiCond15) V3 load(1, XDATA, add(CFA_XSP16, literal(-11)))
        CFI (cfiCond15) V4 load(1, XDATA, add(CFA_XSP16, literal(-10)))
        CFI (cfiCond15) V5 load(1, XDATA, add(CFA_XSP16, literal(-9)))
        CFI (cfiCond15) V6 load(1, XDATA, add(CFA_XSP16, literal(-8)))
        CFI (cfiCond15) V7 load(1, XDATA, add(CFA_XSP16, literal(-7)))
        CFI (cfiCond15) R7 load(1, XDATA, add(CFA_XSP16, literal(-6)))
        CFI (cfiCond15) ?RET_LOW load(1, XDATA, add(CFA_XSP16, literal(-5)))
        CFI (cfiCond15) ?RET_HIGH load(1, XDATA, add(CFA_XSP16, literal(-4)))
        CFI (cfiCond15) ?BRET_EXT load(1, XDATA, add(CFA_XSP16, literal(-3)))
        CFI (cfiCond15) DPL0 load(1, XDATA, add(CFA_XSP16, literal(-2)))
        CFI (cfiCond15) DPH0 load(1, XDATA, add(CFA_XSP16, literal(-1)))
        CFI (cfiCond15) CFA_SP SP+0
        CFI (cfiCond15) CFA_XSP16 add(XSP16, 32)
        CFI Block cfiPicker16 Using cfiCommon1
        CFI (cfiPicker16) NoFunction
        CFI (cfiPicker16) Picker
        LCALL   ??bsp_I2C_SendByte?relay
        ; Setup parameters for call to function bsp_I2C_GetAck
        ; Setup parameters for call to function bsp_I2C_GetAck
        ; Setup parameters for call to function bsp_I2C_GetAck
        ; Setup parameters for call to function bsp_I2C_GetAck
        LCALL   ??bsp_I2C_GetAck?relay
        MOV     A,R1
        RET
        CFI EndBlock cfiCond12
        CFI EndBlock cfiCond13
        CFI EndBlock cfiCond14
        CFI EndBlock cfiCond15
        CFI EndBlock cfiPicker16

        RSEG BANKED_CODE:CODE:NOROOT(0)
?Subroutine0:
        CFI Block cfiCond17 Using cfiCommon0
        CFI NoFunction
        CFI Conditional ??CrossCallReturnLabel_0
        CFI R6 load(1, XDATA, add(CFA_XSP16, literal(-16)))
        CFI VB load(1, XDATA, add(CFA_XSP16, literal(-15)))
        CFI V0 load(1, XDATA, add(CFA_XSP16, literal(-14)))
        CFI V1 load(1, XDATA, add(CFA_XSP16, literal(-13)))
        CFI V2 load(1, XDATA, add(CFA_XSP16, literal(-12)))
        CFI V3 load(1, XDATA, add(CFA_XSP16, literal(-11)))
        CFI V4 load(1, XDATA, add(CFA_XSP16, literal(-10)))
        CFI V5 load(1, XDATA, add(CFA_XSP16, literal(-9)))
        CFI V6 load(1, XDATA, add(CFA_XSP16, literal(-8)))
        CFI V7 load(1, XDATA, add(CFA_XSP16, literal(-7)))
        CFI R7 load(1, XDATA, add(CFA_XSP16, literal(-6)))
        CFI ?RET_LOW load(1, XDATA, add(CFA_XSP16, literal(-5)))
        CFI ?RET_HIGH load(1, XDATA, add(CFA_XSP16, literal(-4)))
        CFI ?BRET_EXT load(1, XDATA, add(CFA_XSP16, literal(-3)))
        CFI DPL0 load(1, XDATA, add(CFA_XSP16, literal(-2)))
        CFI DPH0 load(1, XDATA, add(CFA_XSP16, literal(-1)))
        CFI CFA_SP SP+0
        CFI CFA_XSP16 add(XSP16, 32)
        CFI Block cfiCond18 Using cfiCommon0
        CFI (cfiCond18) NoFunction
        CFI (cfiCond18) Conditional ??CrossCallReturnLabel_1
        CFI (cfiCond18) R6 load(1, XDATA, add(CFA_XSP16, literal(-16)))
        CFI (cfiCond18) VB load(1, XDATA, add(CFA_XSP16, literal(-15)))
        CFI (cfiCond18) V0 load(1, XDATA, add(CFA_XSP16, literal(-14)))
        CFI (cfiCond18) V1 load(1, XDATA, add(CFA_XSP16, literal(-13)))
        CFI (cfiCond18) V2 load(1, XDATA, add(CFA_XSP16, literal(-12)))
        CFI (cfiCond18) V3 load(1, XDATA, add(CFA_XSP16, literal(-11)))
        CFI (cfiCond18) V4 load(1, XDATA, add(CFA_XSP16, literal(-10)))
        CFI (cfiCond18) V5 load(1, XDATA, add(CFA_XSP16, literal(-9)))
        CFI (cfiCond18) V6 load(1, XDATA, add(CFA_XSP16, literal(-8)))
        CFI (cfiCond18) V7 load(1, XDATA, add(CFA_XSP16, literal(-7)))
        CFI (cfiCond18) R7 load(1, XDATA, add(CFA_XSP16, literal(-6)))
        CFI (cfiCond18) ?RET_LOW load(1, XDATA, add(CFA_XSP16, literal(-5)))
        CFI (cfiCond18) ?RET_HIGH load(1, XDATA, add(CFA_XSP16, literal(-4)))
        CFI (cfiCond18) ?BRET_EXT load(1, XDATA, add(CFA_XSP16, literal(-3)))
        CFI (cfiCond18) DPL0 load(1, XDATA, add(CFA_XSP16, literal(-2)))
        CFI (cfiCond18) DPH0 load(1, XDATA, add(CFA_XSP16, literal(-1)))
        CFI (cfiCond18) CFA_SP SP+0
        CFI (cfiCond18) CFA_XSP16 add(XSP16, 32)
        CFI Block cfiCond19 Using cfiCommon0
        CFI (cfiCond19) NoFunction
        CFI (cfiCond19) Conditional ??CrossCallReturnLabel_2
        CFI (cfiCond19) R6 load(1, XDATA, add(CFA_XSP16, literal(-16)))
        CFI (cfiCond19) VB load(1, XDATA, add(CFA_XSP16, literal(-15)))
        CFI (cfiCond19) V0 load(1, XDATA, add(CFA_XSP16, literal(-14)))
        CFI (cfiCond19) V1 load(1, XDATA, add(CFA_XSP16, literal(-13)))
        CFI (cfiCond19) V2 load(1, XDATA, add(CFA_XSP16, literal(-12)))
        CFI (cfiCond19) V3 load(1, XDATA, add(CFA_XSP16, literal(-11)))
        CFI (cfiCond19) V4 load(1, XDATA, add(CFA_XSP16, literal(-10)))
        CFI (cfiCond19) V5 load(1, XDATA, add(CFA_XSP16, literal(-9)))
        CFI (cfiCond19) V6 load(1, XDATA, add(CFA_XSP16, literal(-8)))
        CFI (cfiCond19) V7 load(1, XDATA, add(CFA_XSP16, literal(-7)))
        CFI (cfiCond19) R7 load(1, XDATA, add(CFA_XSP16, literal(-6)))
        CFI (cfiCond19) ?RET_LOW load(1, XDATA, add(CFA_XSP16, literal(-5)))
        CFI (cfiCond19) ?RET_HIGH load(1, XDATA, add(CFA_XSP16, literal(-4)))
        CFI (cfiCond19) ?BRET_EXT load(1, XDATA, add(CFA_XSP16, literal(-3)))
        CFI (cfiCond19) DPL0 load(1, XDATA, add(CFA_XSP16, literal(-2)))
        CFI (cfiCond19) DPH0 load(1, XDATA, add(CFA_XSP16, literal(-1)))
        CFI (cfiCond19) CFA_SP SP+0
        CFI (cfiCond19) CFA_XSP16 add(XSP16, 32)
        CFI Block cfiPicker20 Using cfiCommon1
        CFI (cfiPicker20) NoFunction
        CFI (cfiPicker20) Picker
        LCALL   ?Subroutine3 & 0xFFFF
??CrossCallReturnLabel_10:
        MOV     A,R1
        RET
        CFI EndBlock cfiCond17
        CFI EndBlock cfiCond18
        CFI EndBlock cfiCond19
        CFI EndBlock cfiPicker20

        RSEG XDATA_ROM_C:CONST:REORDER:NOROOT(0)
        DATA32
__Constant_477fff00:
        DD 477FFF00H

        RSEG XDATA_ROM_C:CONST:REORDER:NOROOT(0)
        DATA32
__Constant_432f0000:
        DD 432F0000H

        RSEG XDATA_ROM_C:CONST:REORDER:NOROOT(0)
        DATA32
__Constant_c2340000:
        DD 0C2340000H

        RSEG XDATA_ROM_C:CONST:REORDER:NOROOT(0)
        DATA32
__Constant_42c80000:
        DD 42C80000H

        RSEG BANK_RELAYS:CODE:REORDER:NOROOT(0)
??i2c_sht30_Init?relay:
        LCALL   ?BDISPATCH
        DATA
        DC24    i2c_sht30_Init

        RSEG BANK_RELAYS:CODE:REORDER:NOROOT(0)
??i2c_sht30_StartMeasurement?relay:
        LCALL   ?BDISPATCH
        DATA
        DC24    i2c_sht30_StartMeasurement

        RSEG BANK_RELAYS:CODE:REORDER:NOROOT(0)
??i2c_sht30_ReadData?relay:
        LCALL   ?BDISPATCH
        DATA
        DC24    i2c_sht30_ReadData

        END
// 
// 447 bytes in segment BANKED_CODE
//  18 bytes in segment BANK_RELAYS
//  16 bytes in segment XDATA_ROM_C
//   1 byte  in segment XDATA_Z
// 
// 465 bytes of CODE  memory
//   0 bytes of CONST memory (+ 16 bytes shared)
//   1 byte  of XDATA memory
//
//Errors: none
//Warnings: none
